Certificate:
    Data:
        Version: 3 (0x2)
        Serial Number: 3 (0x3)
    Signature Algorithm: sha1WithRSAEncryption
        Issuer: C=CN, ST=Beijing, O=alice2, OU=alice2, CN=www.alice2.org
        Validity
            Not Before: Oct 19 14:05:15 2014 GMT
            Not After : Oct 16 14:05:15 2024 GMT
        Subject: C=CN, ST=Beijing, O=alice3, OU=alice3, CN=www.alice3.org
        Subject Public Key Info:
            Public Key Algorithm: rsaEncryption
                Public-Key: (2048 bit)
                Modulus:
                    00:e1:12:bb:91:f0:6a:29:a0:c6:c4:a7:cf:d4:ab:
                    1c:56:8a:5a:4c:9e:6d:be:c7:23:30:12:fa:01:9a:
                    1a:61:94:11:51:b5:bc:88:bf:42:e5:fb:70:68:61:
                    86:0e:28:1a:ed:d7:e2:cb:5e:4e:d6:24:a3:be:22:
                    80:1a:2d:04:d9:99:c7:f7:13:35:88:ec:8e:63:3e:
                    0e:ec:c1:f1:cd:a2:cd:97:e4:0e:5d:f2:f4:65:3f:
                    1d:1b:1b:45:76:37:d6:ce:62:7a:34:c4:46:50:0e:
                    b5:ec:76:f9:f1:06:c0:af:5b:87:8f:17:3e:9a:6e:
                    fb:25:4a:05:01:8f:8c:8a:e4:ac:76:da:0c:b2:cc:
                    f1:e8:84:db:d5:3a:92:84:20:69:aa:c8:56:e8:bb:
                    11:de:a7:cf:cc:be:cf:f2:51:91:01:f1:55:66:8b:
                    ff:8a:30:77:e7:a2:14:fb:bf:62:27:24:ec:25:84:
                    9e:0c:bf:d8:30:31:a7:e2:d5:21:cf:fb:06:ef:48:
                    80:ed:05:70:6f:cd:d9:5c:81:55:15:d1:54:00:70:
                    bf:c3:36:11:a3:fc:b9:d5:a9:1c:34:89:c9:25:b3:
                    96:a0:43:66:49:bd:b3:d6:b8:08:71:eb:82:bc:76:
                    12:c7:69:56:e8:e1:59:80:35:45:6c:c5:0b:be:88:
                    71:8d
                Exponent: 65537 (0x10001)
        X509v3 extensions:
            X509v3 Basic Constraints: 
                CA:TRUE
            X509v3 Subject Alternative Name: 
                DNS:www.alice3.com
    Signature Algorithm: sha1WithRSAEncryption
         c2:a0:ee:19:5f:98:4f:41:b2:68:c1:ff:6e:8d:00:3d:e9:77:
         7d:05:53:63:34:e3:ee:c4:29:6d:e6:de:ad:cf:9c:01:9f:98:
         2f:13:77:a8:28:14:c8:f2:48:cf:e6:d4:fb:4c:b8:f2:6e:d8:
         67:28:1d:fe:9b:ac:3a:ac:5b:55:41:46:4c:95:7b:32:a8:79:
         02:c6:c6:70:62:8b:dd:5d:11:a6:b6:df:4c:c2:7d:fb:d9:44:
         9f:86:0f:56:b4:f8:c2:3e:85:b1:c8:10:31:77:70:54:70:6c:
         d1:fa:2f:b8:c0:03:20:b1:8d:30:07:3f:0e:ac:bb:34:f6:f2:
         20:5c:ac:43:33:10:a6:c1:08:2a:69:3a:8b:c2:a4:ad:20:aa:
         ca:f6:ef:ca:3a:06:d1:fb:4c:26:d9:8f:d1:12:d5:13:4e:5c:
         5a:50:58:1a:72:a2:3e:73:56:1c:a5:31:b6:4d:73:c6:a9:96:
         98:6f:ab:7d:16:76:5d:32:a0:cb:28:1a:95:55:0c:57:14:5b:
         ad:8c:c0:4d:57:9d:f1:60:dc:71:f8:13:11:34:44:fa:4a:d2:
         2c:4f:b1:64:87:c9:f4:f5:da:3b:dc:69:7d:4b:46:39:f7:ea:
         01:d3:52:2c:df:62:62:ef:24:73:a3:b7:74:13:a3:b0:02:44:
         29:c9:49:73:a2:5f:9a:7a:1a:24:2c:eb:8e:6f:d1:c6:60:62:
         55:42:f5:20:ce:eb:cf:d4:bb:ca:07:9a:43:43:1c:1d:75:58:
         69:8a:88:d5:01:77:07:74:f3:61:8c:73:22:11:1c:6a:4a:9a:
         4f:84:47:c5:6f:8d:13:1a:ae:f4:2e:c3:c1:f6:09:01:68:29:
         0e:0c:3e:0f:59:8b:49:08:cd:75:3c:78:07:a6:d3:00:aa:0f:
         19:db:bd:45:8e:3e:dc:6d:a1:0f:94:92:5d:0e:b1:e8:1b:61:
         cb:72:81:3f:be:0b:20:cb:9a:13:fc:1b:57:b2:71:2f:6a:49:
         d5:37:f9:13:e0:0b:42:c0:2c:2b:db:95:f4:d7:bf:c1:ca:c6:
         65:fd:04:2d:c3:9d:5a:f1:21:af:0f:3e:04:38:ce:5a:ac:e5:
         2f:af:cc:c1:bb:38:5f:e3:ad:ea:37:05:21:59:e8:f3:f7:15:
         37:0b:5e:82:95:9e:ec:d5:ce:33:89:09:e2:22:2d:ad:1c:ca:
         ef:9e:34:8e:0f:62:57:1c:6a:3f:6e:c8:05:0f:87:42:c4:ea:
         15:24:3f:db:a1:6d:73:a8:32:2b:fd:3b:50:37:f8:8a:ff:5f:
         ea:33:c7:29:11:e3:6d:70:fa:a9:f6:c2:64:4e:2b:ed:39:0c:
         da:cd:3f:60:4c:3f:d9:eb
-----BEGIN CERTIFICATE-----
MIIEWjCCAkKgAwIBAgIBAzANBgkqhkiG9w0BAQUFADBaMQswCQYDVQQGEwJDTjEQ
MA4GA1UECAwHQmVpamluZzEPMA0GA1UECgwGYWxpY2UyMQ8wDQYDVQQLDAZhbGlj
ZTIxFzAVBgNVBAMMDnd3dy5hbGljZTIub3JnMB4XDTE0MTAxOTE0MDUxNVoXDTI0
MTAxNjE0MDUxNVowWjELMAkGA1UEBhMCQ04xEDAOBgNVBAgMB0JlaWppbmcxDzAN
BgNVBAoMBmFsaWNlMzEPMA0GA1UECwwGYWxpY2UzMRcwFQYDVQQDDA53d3cuYWxp
Y2UzLm9yZzCCASIwDQYJKoZIhvcNAQEBBQADggEPADCCAQoCggEBAOESu5Hwaimg
xsSnz9SrHFaKWkyebb7HIzAS+gGaGmGUEVG1vIi/QuX7cGhhhg4oGu3X4steTtYk
o74igBotBNmZx/cTNYjsjmM+DuzB8c2izZfkDl3y9GU/HRsbRXY31s5iejTERlAO
tex2+fEGwK9bh48XPppu+yVKBQGPjIrkrHbaDLLM8eiE29U6koQgaarIVui7Ed6n
z8y+z/JRkQHxVWaL/4owd+eiFPu/Yick7CWEngy/2DAxp+LVIc/7Bu9IgO0FcG/N
2VyBVRXRVABwv8M2EaP8udWpHDSJySWzlqBDZkm9s9a4CHHrgrx2EsdpVujhWYA1
RWzFC76IcY0CAwEAAaMrMCkwDAYDVR0TBAUwAwEB/zAZBgNVHREEEjAQgg53d3cu
YWxpY2UzLmNvbTANBgkqhkiG9w0BAQUFAAOCAgEAwqDuGV+YT0GyaMH/bo0APel3
fQVTYzTj7sQpbeberc+cAZ+YLxN3qCgUyPJIz+bU+0y48m7YZygd/pusOqxbVUFG
TJV7Mqh5AsbGcGKL3V0RprbfTMJ9+9lEn4YPVrT4wj6FscgQMXdwVHBs0fovuMAD
ILGNMAc/Dqy7NPbyIFysQzMQpsEIKmk6i8KkrSCqyvbvyjoG0ftMJtmP0RLVE05c
WlBYGnKiPnNWHKUxtk1zxqmWmG+rfRZ2XTKgyygalVUMVxRbrYzATVed8WDccfgT
ETRE+krSLE+xZIfJ9PXaO9xpfUtGOffqAdNSLN9iYu8kc6O3dBOjsAJEKclJc6Jf
mnoaJCzrjm/RxmBiVUL1IM7rz9S7ygeaQ0McHXVYaYqI1QF3B3TzYYxzIhEcakqa
T4RHxW+NExqu9C7DwfYJAWgpDgw+D1mLSQjNdTx4B6bTAKoPGdu9RY4+3G2hD5SS
XQ6x6Bthy3KBP74LIMuaE/wbV7JxL2pJ1Tf5E+ALQsAsK9uV9Ne/wcrGZf0ELcOd
WvEhrw8+BDjOWqzlL6/Mwbs4X+Ot6jcFIVno8/cVNwtegpWe7NXOM4kJ4iItrRzK
7540jg9iVxxqP27IBQ+HQsTqFSQ/26Ftc6gyK/07UDf4iv9f6jPHKRHjbXD6qfbC
ZE4r7TkM2s0/YEw/2es=
-----END CERTIFICATE-----
