Certificate:
    Data:
        Version: 3 (0x2)
        Serial Number: 2 (0x2)
    Signature Algorithm: md5WithRSAEncryption
        Issuer: C=CN, ST=Beijing, O=alice1, OU=alice1, CN=www.alice1.org
        Validity
            Not Before: Oct 19 13:51:00 2014 GMT
            Not After : Oct 16 13:51:00 2024 GMT
        Subject: C=CN, ST=Beijing, O=alice2, OU=alice2, CN=www.alice2.org
        Subject Public Key Info:
            Public Key Algorithm: rsaEncryption
                Public-Key: (4096 bit)
                Modulus:
                    00:cf:ff:10:de:af:88:81:a9:ba:32:93:14:6e:f5:
                    08:35:04:a9:fe:28:56:4b:05:b5:76:5b:24:8f:eb:
                    89:9e:ec:fb:aa:b9:d6:03:c1:0b:1e:ba:a1:d7:e3:
                    c7:83:a2:4b:80:e5:25:d3:e1:f4:c3:01:98:b9:26:
                    16:be:c5:42:b2:90:8f:f6:f1:35:13:6d:07:16:ec:
                    7b:33:fa:0c:a8:c1:68:d7:92:77:5e:cf:06:6a:b7:
                    d3:91:92:40:9c:3a:92:30:85:57:93:ed:e1:71:1f:
                    bd:00:82:8c:da:aa:53:57:0b:4a:88:d1:8e:79:f4:
                    8d:13:e1:83:40:1d:57:34:a6:99:18:16:b9:c1:dc:
                    af:5d:d4:1a:ae:c8:a6:0e:84:a8:81:31:24:f1:57:
                    03:d9:99:48:ad:f6:ee:d3:53:35:64:be:37:6a:56:
                    60:7d:5a:3f:2e:bb:72:5c:80:56:7e:ba:bb:dd:39:
                    51:7c:f7:f6:68:dc:19:53:d8:9e:69:0f:47:fe:d3:
                    64:48:73:b9:da:fa:ef:c3:44:cf:f5:1b:d2:c9:c4:
                    eb:65:36:06:64:04:fa:be:d7:1c:52:25:39:95:ea:
                    8e:f9:c5:6c:fc:4f:41:39:36:f4:d0:c4:dd:a2:59:
                    3f:87:53:ea:05:8f:0b:f9:83:ca:4b:01:07:58:a1:
                    75:cb:cc:73:cb:a4:2a:f7:2f:b5:7c:63:e5:ce:a0:
                    e1:61:19:54:eb:3a:34:26:f6:f0:f9:c8:99:0b:91:
                    04:3a:c1:23:31:c2:78:1b:65:07:4b:60:fb:56:19:
                    47:58:aa:b7:31:6b:e3:70:67:3d:27:37:fc:46:94:
                    ae:6a:68:17:ef:43:31:fa:c3:de:a4:b6:ee:f4:04:
                    7d:2c:75:32:11:92:50:d7:66:3c:fd:da:b6:5e:e8:
                    40:33:e0:f0:79:33:d0:cd:24:99:e0:91:71:0f:e9:
                    98:a3:8f:d3:22:4b:af:1a:87:26:a1:63:ec:36:0e:
                    8a:8a:83:d8:5c:81:4c:3c:4f:b1:e9:1e:fd:e2:f8:
                    0a:a3:87:2c:12:2b:65:7f:10:82:fd:ac:3a:b0:19:
                    4b:6b:f6:f7:54:6a:0f:57:3d:94:84:98:f6:0f:7e:
                    16:b5:e7:d0:45:72:82:58:78:1b:ff:94:82:b5:76:
                    ce:60:f9:b7:49:79:84:f1:1e:22:aa:0b:d2:0f:f9:
                    82:74:3b:fb:56:11:8b:8c:8e:d3:cf:be:82:b3:81:
                    aa:3a:64:de:dc:5b:9a:39:f5:17:29:36:bd:cd:e3:
                    b1:5c:d6:ff:b2:fe:a3:2a:0f:38:18:cb:2e:a7:ac:
                    8a:00:12:3a:50:b0:90:8a:f6:95:bf:84:2d:7a:21:
                    7e:5b:9b
                Exponent: 65537 (0x10001)
        X509v3 extensions:
            X509v3 Basic Constraints: 
                CA:TRUE
            X509v3 Subject Alternative Name: 
                DNS:www.alice2.com
    Signature Algorithm: md5WithRSAEncryption
         71:98:14:ad:eb:c3:dd:f0:11:ad:dd:37:c7:ff:50:02:b5:8a:
         84:8e:68:b3:bb:3a:0e:e4:83:78:e2:60:6a:0c:1d:a7:df:bf:
         b2:20:f9:f6:12:1b:43:ee:49:78:78:f0:71:f4:76:55:d6:97:
         e2:a1:09:6f:55:fc:a1:88:1f:b2:a9:c5:2f:07:4e:75:7d:55:
         44:92:49:16:8e:67:6b:39:a8:59:98:eb:8b:9a:40:1b:a9:91:
         97:e8:07:8b:c3:ea:1d:4a:93:0e:a7:93:3d:5c:1a:f5:a4:7c:
         56:63:77:0f:a0:e3:94:cd:4f:a8:9d:80:88:70:e0:0c:1c:02:
         0b:30:aa:1a:f4:11:8c:53:1a:de:7b:12:96:ae:eb:f0:6a:1c:
         0f:8f:bd:2d:8e:6d:2d:59:4a:ce:3f:a4:74:66:61:ac:7f:97:
         c1:cf:9d:f2:86:b8:a0:6e:90:23:85:de:0b:d1:b7:f9:49:29:
         a2:ee:72:b4:a4:2c:94:0d:c9:9b:69:e4:12:ee:db:5f:1e:48:
         a7:fd:0b:71:87:0d:a1:2f:41:93:e0:41:82:71:46:9a:0a:4e:
         d0:29:17:e3:93:4e:37:e2:c4:49:b9:a8:ac:98:2a:6d:61:2c:
         4c:1c:68:6c:22:95:a4:a1:66:5b:c7:5a:69:83:58:63:cf:6e:
         89:2f:05:03
-----BEGIN CERTIFICATE-----
MIIEWjCCA0KgAwIBAgIBAjANBgkqhkiG9w0BAQQFADBaMQswCQYDVQQGEwJDTjEQ
MA4GA1UECAwHQmVpamluZzEPMA0GA1UECgwGYWxpY2UxMQ8wDQYDVQQLDAZhbGlj
ZTExFzAVBgNVBAMMDnd3dy5hbGljZTEub3JnMB4XDTE0MTAxOTEzNTEwMFoXDTI0
MTAxNjEzNTEwMFowWjELMAkGA1UEBhMCQ04xEDAOBgNVBAgMB0JlaWppbmcxDzAN
BgNVBAoMBmFsaWNlMjEPMA0GA1UECwwGYWxpY2UyMRcwFQYDVQQDDA53d3cuYWxp
Y2UyLm9yZzCCAiIwDQYJKoZIhvcNAQEBBQADggIPADCCAgoCggIBAM//EN6viIGp
ujKTFG71CDUEqf4oVksFtXZbJI/riZ7s+6q51gPBCx66odfjx4OiS4DlJdPh9MMB
mLkmFr7FQrKQj/bxNRNtBxbsezP6DKjBaNeSd17PBmq305GSQJw6kjCFV5Pt4XEf
vQCCjNqqU1cLSojRjnn0jRPhg0AdVzSmmRgWucHcr13UGq7Ipg6EqIExJPFXA9mZ
SK327tNTNWS+N2pWYH1aPy67clyAVn66u905UXz39mjcGVPYnmkPR/7TZEhzudr6
78NEz/Ub0snE62U2BmQE+r7XHFIlOZXqjvnFbPxPQTk29NDE3aJZP4dT6gWPC/mD
yksBB1ihdcvMc8ukKvcvtXxj5c6g4WEZVOs6NCb28PnImQuRBDrBIzHCeBtlB0tg
+1YZR1iqtzFr43BnPSc3/EaUrmpoF+9DMfrD3qS27vQEfSx1MhGSUNdmPP3atl7o
QDPg8Hkz0M0kmeCRcQ/pmKOP0yJLrxqHJqFj7DYOioqD2FyBTDxPseke/eL4CqOH
LBIrZX8Qgv2sOrAZS2v291RqD1c9lISY9g9+FrXn0EVyglh4G/+UgrV2zmD5t0l5
hPEeIqoL0g/5gnQ7+1YRi4yO08++grOBqjpk3txbmjn1Fyk2vc3jsVzW/7L+oyoP
OBjLLqesigASOlCwkIr2lb+ELXohflubAgMBAAGjKzApMAwGA1UdEwQFMAMBAf8w
GQYDVR0RBBIwEIIOd3d3LmFsaWNlMi5jb20wDQYJKoZIhvcNAQEEBQADggEBAHGY
FK3rw93wEa3dN8f/UAK1ioSOaLO7Og7kg3jiYGoMHaffv7Ig+fYSG0PuSXh48HH0
dlXWl+KhCW9V/KGIH7KpxS8HTnV9VUSSSRaOZ2s5qFmY64uaQBupkZfoB4vD6h1K
kw6nkz1cGvWkfFZjdw+g45TNT6idgIhw4AwcAgswqhr0EYxTGt57Epau6/BqHA+P
vS2ObS1ZSs4/pHRmYax/l8HPnfKGuKBukCOF3gvRt/lJKaLucrSkLJQNyZtp5BLu
218eSKf9C3GHDaEvQZPgQYJxRpoKTtApF+OTTjfixEm5qKyYKm1hLEwcaGwilaSh
ZlvHWmmDWGPPbokvBQM=
-----END CERTIFICATE-----
