Certificate:
    Data:
        Version: 3 (0x2)
        Serial Number: 3 (0x3)
    Signature Algorithm: dsaWithSHA1
        Issuer: C=CN, ST=Beijing, O=bob2, OU=bob2, CN=www.bob2.org
        Validity
            Not Before: Oct 19 14:39:16 2014 GMT
            Not After : Oct 16 14:39:16 2024 GMT
        Subject: C=CN, ST=Beijing, O=bob3, OU=bob3, CN=www.bob3.org
        Subject Public Key Info:
            Public Key Algorithm: dsaEncryption
                pub: 
                    44:80:bf:dd:54:12:57:be:ad:7b:4c:a7:4b:27:b2:
                    03:54:92:e3:d3:da:23:a4:51:8b:a0:39:59:66:69:
                    64:5a:7c:af:de:9b:78:a4:a1:93:2d:18:69:a5:8c:
                    43:1e:ba:12:04:cf:77:fd:c0:2c:06:4a:84:bc:1f:
                    5e:76:13:14:5b:5f:04:61:b8:25:31:89:db:d7:0d:
                    83:e5:40:71:98:ad:42:72:c4:79:97:d3:1d:be:f7:
                    22:93:53:36:98:a7:c1:fd:53:b3:d7:f7:ab:4a:1c:
                    74:cc:2b:85:20:c6:d3:7a:bb:a2:00:17:81:b9:20:
                    d2:ce:ab:92:61:cb:14:9a:29:fc:2b:38:90:c4:2e:
                    0b:02:ba:6f:23:d5:4f:c6:61:f2:f8:c9:d6:57:cd:
                    e1:e1:39:b4:ed:44:97:f0:15:96:ca:0a:68:5f:c9:
                    62:8c:5c:55:92:a1:90:31:2f:d0:c6:81:48:75:16:
                    d8:f4:19:f3:61:6b:e8:55:b8:d2:39:9f:68:5c:45:
                    df:c7:e5:b4:60:e0:a7:70:09:9d:70:15:89:c0:24:
                    42:af:64:cf:c8:8a:1c:b8:48:03:c9:76:82:7a:b3:
                    d2:af:04:b1:8d:cf:34:30:15:5d:4c:b4:ec:1a:13:
                    3e:0d:3f:ba:e5:cf:30:43:08:d5:e8:5c:34:83:68:
                    c1
                P:   
                    00:f9:16:c6:e5:05:01:7d:da:61:fa:44:e6:81:89:
                    b5:16:9d:9c:c0:97:39:80:dd:7f:f9:a6:19:0f:b5:
                    cc:e1:cf:bc:7d:28:bd:53:26:0f:2d:56:26:93:5d:
                    4b:07:38:a7:ad:43:55:bd:7d:fb:de:1b:6e:1f:8c:
                    ea:e5:43:b7:11:19:56:cf:4c:f6:6b:1f:18:5b:ae:
                    b2:a8:f9:c1:43:b4:7a:10:b4:e6:7b:13:98:5d:01:
                    70:97:1a:e7:87:67:64:23:8f:99:33:12:97:01:9d:
                    ab:48:23:98:ca:3c:7f:7b:8d:da:cb:fe:a9:76:a7:
                    c5:44:e2:92:15:4c:99:00:3d:6c:24:81:c1:fe:0a:
                    14:26:dd:e1:25:46:81:da:0b:4e:91:d3:9a:48:51:
                    70:86:93:53:53:08:fb:48:d6:28:80:bf:d4:45:5a:
                    bd:8b:21:5b:04:b8:d3:7c:23:8a:12:c3:96:70:5a:
                    da:b1:21:28:08:00:8e:3b:87:5d:e3:56:c5:76:c2:
                    ea:7c:1f:0a:e5:fa:b0:70:9c:47:7e:25:8f:90:6a:
                    02:05:62:c5:0e:88:27:26:51:08:c9:ea:86:15:5d:
                    e0:07:2b:cb:5f:44:c2:1f:40:f1:83:d3:d1:68:18:
                    14:75:22:aa:8c:7f:5e:f6:73:7e:0e:7e:af:84:f6:
                    d5:0b
                Q:   
                    00:bf:98:94:43:de:31:7a:d4:ba:d7:b9:84:25:b2:
                    e1:cf:58:d2:b8:7e:58:82:11:73:33:d4:03:23:27:
                    57:17:fd
                G:   
                    00:c4:f7:a4:9e:8a:7e:d9:11:16:19:d8:9e:0c:88:
                    7f:94:71:d6:b5:f8:82:89:0b:0e:eb:ce:26:37:0a:
                    89:dd:33:57:aa:b0:77:ba:7f:67:91:29:30:1d:4e:
                    5e:0d:aa:bb:4b:7e:5d:23:cf:a9:2d:57:50:90:2b:
                    39:e8:2c:a9:90:ea:3a:ce:ad:d3:b6:88:88:74:7e:
                    a1:cf:bc:a2:f7:64:83:cd:16:01:28:8d:32:51:1c:
                    c1:89:12:7e:cc:61:ff:45:36:1d:6a:11:e7:20:8c:
                    60:dd:6f:3f:37:26:a5:03:74:97:6a:c4:45:4b:af:
                    4c:46:81:be:46:ae:96:3b:d6:ac:1d:e9:04:72:d2:
                    66:d0:04:cb:0d:36:d9:e3:44:f7:6c:39:07:3e:cd:
                    67:84:99:4b:e9:ea:1a:bf:42:a6:49:52:38:12:60:
                    ab:23:27:8b:88:21:71:f4:b2:7e:ab:dc:5a:e0:95:
                    d2:32:60:ca:dd:b1:dd:38:38:a2:d3:f3:b6:ef:47:
                    bd:67:b4:fa:99:18:60:0e:e5:a2:0c:bb:aa:d1:b3:
                    32:c5:26:b2:ca:0f:a8:49:90:f2:5b:e2:d5:6a:d3:
                    52:26:6e:11:87:e5:09:dc:03:6e:1e:fb:92:8c:37:
                    3b:ae:2a:5d:11:91:ca:17:bf:fe:ff:07:4f:fa:02:
                    01:71
        X509v3 extensions:
            X509v3 Basic Constraints: 
                CA:TRUE
            X509v3 Subject Alternative Name: 
                DNS:www.bob3.com
    Signature Algorithm: dsaWithSHA1
         r:   
             69:9f:e9:0e:68:91:9b:63:b7:52:04:3a:8c:d7:87:
             a8:08:27:d5:5f:ac:e5:db:bf:cb:60:b3:f6:9a:dc:
             cd:84
         s:   
             1c:e0:2c:6e:76:66:68:82:e2:98:ce:f3:e6:c9:a2:
             58:f6:b4:74:43:43:46:89:39:97:6c:2d:36:19:86:
             f2:cd
-----BEGIN CERTIFICATE-----
MIIErTCCBFWgAwIBAgIBAzAJBgcqhkjOOAQDMFQxCzAJBgNVBAYTAkNOMRAwDgYD
VQQIDAdCZWlqaW5nMQ0wCwYDVQQKDARib2IyMQ0wCwYDVQQLDARib2IyMRUwEwYD
VQQDDAx3d3cuYm9iMi5vcmcwHhcNMTQxMDE5MTQzOTE2WhcNMjQxMDE2MTQzOTE2
WjBUMQswCQYDVQQGEwJDTjEQMA4GA1UECAwHQmVpamluZzENMAsGA1UECgwEYm9i
MzENMAsGA1UECwwEYm9iMzEVMBMGA1UEAwwMd3d3LmJvYjMub3JnMIIDRzCCAjoG
ByqGSM44BAEwggItAoIBAQD5FsblBQF92mH6ROaBibUWnZzAlzmA3X/5phkPtczh
z7x9KL1TJg8tViaTXUsHOKetQ1W9ffveG24fjOrlQ7cRGVbPTPZrHxhbrrKo+cFD
tHoQtOZ7E5hdAXCXGueHZ2Qjj5kzEpcBnatII5jKPH97jdrL/ql2p8VE4pIVTJkA
PWwkgcH+ChQm3eElRoHaC06R05pIUXCGk1NTCPtI1iiAv9RFWr2LIVsEuNN8I4oS
w5ZwWtqxISgIAI47h13jVsV2wup8Hwrl+rBwnEd+JY+QagIFYsUOiCcmUQjJ6oYV
XeAHK8tfRMIfQPGD09FoGBR1IqqMf172c34Ofq+E9tULAiEAv5iUQ94xetS617mE
JbLhz1jSuH5YghFzM9QDIydXF/0CggEBAMT3pJ6KftkRFhnYngyIf5Rx1rX4gokL
DuvOJjcKid0zV6qwd7p/Z5EpMB1OXg2qu0t+XSPPqS1XUJArOegsqZDqOs6t07aI
iHR+oc+8ovdkg80WASiNMlEcwYkSfsxh/0U2HWoR5yCMYN1vPzcmpQN0l2rERUuv
TEaBvkauljvWrB3pBHLSZtAEyw022eNE92w5Bz7NZ4SZS+nqGr9CpklSOBJgqyMn
i4ghcfSyfqvcWuCV0jJgyt2x3Tg4otPztu9HvWe0+pkYYA7logy7qtGzMsUmssoP
qEmQ8lvi1WrTUiZuEYflCdwDbh77kow3O64qXRGRyhe//v8HT/oCAXEDggEFAAKC
AQBEgL/dVBJXvq17TKdLJ7IDVJLj09ojpFGLoDlZZmlkWnyv3pt4pKGTLRhppYxD
HroSBM93/cAsBkqEvB9edhMUW18EYbglMYnb1w2D5UBxmK1CcsR5l9Mdvvcik1M2
mKfB/VOz1/erShx0zCuFIMbTeruiABeBuSDSzquSYcsUmin8KziQxC4LArpvI9VP
xmHy+MnWV83h4Tm07USX8BWWygpoX8lijFxVkqGQMS/QxoFIdRbY9BnzYWvoVbjS
OZ9oXEXfx+W0YOCncAmdcBWJwCRCr2TPyIocuEgDyXaCerPSrwSxjc80MBVdTLTs
GhM+DT+65c8wQwjV6Fw0g2jBoykwJzAMBgNVHRMEBTADAQH/MBcGA1UdEQQQMA6C
DHd3dy5ib2IzLmNvbTAJBgcqhkjOOAQDA0cAMEQCIGmf6Q5okZtjt1IEOozXh6gI
J9VfrOXbv8tgs/aa3M2EAiAc4CxudmZoguKYzvPmyaJY9rR0Q0NGiTmXbC02GYby
zQ==
-----END CERTIFICATE-----
