Certificate:
    Data:
        Version: 3 (0x2)
        Serial Number: 1 (0x1)
        Signature Algorithm: md5WithRSAEncryption
        Issuer: C=CN, ST=Beijing, L=Beijing, O=Haidian, OU=FZ, CN=FZ/emailAddress=100000@fz.org
        Validity
            Not Before: Feb  8 09:51:19 2012 GMT
            Not After : Feb  5 09:51:19 2022 GMT
        Subject: C=CN, ST=100001, O=100001, OU=100001, CN=100001
        Subject Public Key Info:
            Public Key Algorithm: rsaEncryption
                Public-Key: (1024 bit)
                Modulus:
                    00:9d:71:2e:74:c3:82:f7:a4:1b:46:69:40:34:eb:
                    6d:af:b7:d9:06:8c:4d:3c:3b:b2:6f:9e:52:ce:b2:
                    61:21:7f:dc:4b:75:78:20:96:40:7b:fb:f2:ef:65:
                    b6:79:b7:4d:a2:9b:a9:d1:5a:73:db:4d:f1:e0:ca:
                    9b:a8:21:fb:df:4c:ee:17:20:9d:6b:d5:ce:14:40:
                    7f:2e:0d:76:23:09:60:7c:8a:4d:66:4f:c5:4a:48:
                    db:79:ca:06:77:a0:a6:31:60:de:d9:99:80:18:30:
                    eb:53:dd:e5:59:85:22:90:b7:80:bc:63:05:11:9e:
                    96:bb:7a:67:f6:0a:f0:ff:61
                Exponent: 65537 (0x10001)
    Signature Algorithm: md5WithRSAEncryption
        05:db:fd:b8:a8:f3:b4:07:d2:86:68:5d:07:21:09:7a:55:f7:
        27:36:17:ea:9b:3e:dd:34:62:3c:64:d1:14:9a:28:56:18:62:
        40:ca:4f:9d:e0:6d:64:57:15:eb:b5:5c:0e:ba:01:70:c9:46:
        84:7d:c2:97:a3:ab:59:e5:32:33:10:26:95:3f:1c:88:f2:3a:
        ff:c1:62:75:aa:16:97:72:af:d8:34:a0:9e:df:8c:d3:8b:8c:
        a0:81:39:32:91:24:9f:65:f0:06:ca:48:c2:5a:b2:b7:f5:65:
        93:d9:a0:77:0b:87:5f:b6:1f:46:87:45:da:70:b6:89:8c:e2:
        72:53:68:3d:4f:5b:fb:7e:ce:a5:d2:30:e4:dc:50:16:85:ee:
        c9:f2:99:ae:4b:cf:06:32:44:9d:3f:8e:e3:41:ed:d1:00:fc:
        a4:7b:dc:c8:6c:41:d1:b3:a4:9c:4a:00:1d:1e:47:2a:6b:c4:
        0d:b2:87:54:5a:45:80:b8:68:9b:e4:c2:17:dd:b1:0b:a7:2d:
        c4:e7:6a:15:f8:13:e0:36:10:f7:60:71:e9:78:ef:1c:a5:91:
        5d:f7:5c:a9:f8:58:06:87:b5:6b:7a:0c:57:da:1b:d4:99:66:
        d1:fc:97:71:ab:6d:b3:f3:ad:bf:2d:6b:ed:8c:0a:ac:30:84:
        5c:34:8e:f6
-----BEGIN CERTIFICATE-----
MIICwTCCAamgAwIBAgIBATANBgkqhkiG9w0BAQQFADB7MQswCQYDVQQGEwJDTjEQ
MA4GA1UECAwHQmVpamluZzEQMA4GA1UEBwwHQmVpamluZzEQMA4GA1UECgwHSGFp
ZGlhbjELMAkGA1UECwwCRloxCzAJBgNVBAMMAkZaMRwwGgYJKoZIhvcNAQkBFg0x
MDAwMDBAZnoub3JnMB4XDTEyMDIwODA5NTExOVoXDTIyMDIwNTA5NTExOVowUTEL
MAkGA1UEBhMCQ04xDzANBgNVBAgMBjEwMDAwMTEPMA0GA1UECgwGMTAwMDAxMQ8w
DQYDVQQLDAYxMDAwMDExDzANBgNVBAMMBjEwMDAwMTCBnzANBgkqhkiG9w0BAQEF
AAOBjQAwgYkCgYEAnXEudMOC96QbRmlANOttr7fZBoxNPDuyb55SzrJhIX/cS3V4
IJZAe/vy72W2ebdNopup0Vpz203x4MqbqCH730zuFyCda9XOFEB/Lg12IwlgfIpN
Zk/FSkjbecoGd6CmMWDe2ZmAGDDrU93lWYUikLeAvGMFEZ6Wu3pn9grw/2ECAwEA
ATANBgkqhkiG9w0BAQQFAAOCAQEABdv9uKjztAfShmhdByEJelX3JzYX6ps+3TRi
PGTRFJooVhhiQMpPneBtZFcV67VcDroBcMlGhH3Cl6OrWeUyMxAmlT8ciPI6/8Fi
daoWl3Kv2DSgnt+M04uMoIE5MpEkn2XwBspIwlqyt/Vlk9mgdwuHX7YfRodF2nC2
iYziclNoPU9b+37OpdIw5NxQFoXuyfKZrkvPBjJEnT+O40Ht0QD8pHvcyGxB0bOk
nEoAHR5HKmvEDbKHVFpFgLhom+TCF92xC6ctxOdqFfgT4DYQ92Bx6XjvHKWRXfdc
qfhYBoe1a3oMV9ob1Jlm0fyXcatts/Otvy1r7YwKrDCEXDSO9g==
-----END CERTIFICATE-----
