Certificate:
    Data:
        Version: 3 (0x2)
        Serial Number: 6 (0x6)
        Signature Algorithm: md5WithRSAEncryption
        Issuer: C=CN, ST=Beijing, L=Beijing, O=Haidian, OU=FZ, CN=FZ/emailAddress=100000@fz.org
        Validity
            Not Before: Feb  8 09:52:00 2012 GMT
            Not After : Feb  5 09:52:00 2022 GMT
        Subject: C=CN, ST=100006, O=100006, OU=100006, CN=100006
        Subject Public Key Info:
            Public Key Algorithm: dsaEncryption
                pub: 
                    00:a3:73:b8:02:b3:f2:ee:6d:43:62:ff:b2:9d:d7:
                    06:fe:a5:ea:90:e8:a2:b3:92:cc:89:4b:a4:e7:73:
                    bd:0a:96:20:28:ff:c2:9d:b2:19:28:35:b2:14:4e:
                    89:01:b5:6a:a7:31:0e:d8:e4:23:a9:86:45:ea:ad:
                    0c:7e:ae:61:dd:f4:36:1b:dd:d1:53:99:fc:d1:cb:
                    bd:a8:ba:c5:f0:64:b0:9f:73:62:b8:ac:78:78:b1:
                    ef:23:da:63:4a:fe:e2:d9:6f:97:18:e2:e7:4e:33:
                    0f:a8:25:ed:4d:73:0c:ac:2e:17:f0:6b:d5:07:62:
                    ce:e0:05:37:48:7d:27:1f:df:46:38:94:85:c9:58:
                    db:01:69:13:dd:f5:f6:5e:76:ab:be:63:45:58:3f:
                    59:06:58:f8:42:66:be:38:dd:1d:fe:b9:2b:47:09:
                    05:cc:46:d8:61:a0:50:19:d1:a4:f6:45:94:2c:f7:
                    d8:52:46:34:c0:18:4b:ef:68:db:42:7c:4b:71:41:
                    de:2e:3c:67:8a:0f:c2:de:80:3d:c2:be:8a:79:2b:
                    f7:f5:9e:9b:11:c1:92:e4:cb:31:f2:a7:a6:7c:21:
                    68:21:3d:ad:d7:31:2e:20:8a:57:65:ea:d4:31:02:
                    e6:c0:92:2f:f4:a5:b7:e2:12:fb:56:6e:bc:89:4c:
                    fb:1b
                P:   
                    00:b8:0b:b8:1c:cd:64:33:39:5c:a1:34:92:ff:ea:
                    ee:7f:f8:32:f4:5d:23:8d:00:46:ea:a2:10:3e:e9:
                    30:ca:b8:3f:31:e1:e9:d9:e5:44:35:80:a5:91:ee:
                    a4:d1:02:f4:cf:54:28:f4:64:a4:ac:16:d6:4b:9b:
                    3d:66:5f:4b:22:c0:d9:bf:b7:be:30:26:ef:2b:15:
                    09:02:c6:e9:b9:d6:82:a8:1e:49:f9:7f:33:f7:e5:
                    18:31:da:aa:3a:78:d4:b7:2e:0e:ac:a3:cd:bf:4a:
                    a6:cc:43:bc:8b:4b:7d:a8:25:d6:a2:5e:94:bc:2a:
                    e0:6b:58:84:86:8e:b8:12:58:c4:6b:88:c5:26:da:
                    50:41:bf:43:4e:cb:69:08:7c:81:ed:c2:97:01:2b:
                    82:2b:43:30:57:5a:0c:d7:4f:4e:7a:de:13:29:3d:
                    fe:85:d5:ce:15:2f:6c:4c:2c:d1:59:62:e6:90:0c:
                    16:5b:18:e1:a1:b5:45:9a:ab:0c:5b:8b:ff:f4:fc:
                    46:e9:67:f5:a4:fb:75:b3:b4:e1:ef:38:db:ef:38:
                    f9:38:59:69:85:76:38:1c:f4:6e:77:00:75:7e:85:
                    fe:d0:62:33:d0:57:8a:7c:66:04:22:27:78:11:b4:
                    53:d6:88:06:90:d9:dc:40:3f:7b:48:d4:f2:b2:6a:
                    bc:fb
                Q:   
                    00:c3:40:7c:1c:9c:20:b0:29:ee:74:bc:a5:62:6f:
                    49:e1:5b:88:d1:87:9d:96:b0:7f:88:ec:64:7e:0d:
                    81:dd:39
                G:   
                    50:d4:0e:57:4b:3e:19:80:61:88:b7:94:0e:fd:6a:
                    d9:4c:8b:1c:88:0f:10:fa:2e:ee:16:33:c8:30:7e:
                    c8:56:14:d0:6c:f4:b0:a6:2f:5c:d9:23:3f:db:4b:
                    a5:49:e3:a3:26:87:9d:13:f1:88:d6:96:75:a7:eb:
                    72:37:71:35:8c:ca:6b:2b:eb:85:db:29:e2:2a:38:
                    ff:66:9e:fc:a1:de:c0:ae:10:bd:a9:62:34:2b:74:
                    06:06:94:ae:c6:9a:69:8b:c7:ad:75:50:4f:63:f1:
                    b1:94:25:6b:9b:7c:45:cd:ec:1c:b4:89:25:00:01:
                    5d:4e:9f:08:39:69:d1:b7:d3:ed:11:68:dc:83:6a:
                    37:35:05:12:83:9b:f7:c9:a4:4c:a3:d2:24:12:6c:
                    8f:82:58:de:39:01:bf:52:d9:f3:59:8b:e1:45:11:
                    b5:13:f1:78:ac:f0:f2:eb:39:56:63:03:10:3a:c4:
                    8e:58:89:5a:30:fa:c5:fe:c9:ee:8b:e2:84:03:3b:
                    61:38:32:b8:93:a6:8d:12:41:1b:3a:93:08:56:c5:
                    84:de:c4:04:02:62:34:0e:b1:de:90:14:23:5a:75:
                    46:42:a0:62:a1:a3:8f:05:76:f4:3c:d1:1a:06:a1:
                    20:88:e6:00:c3:28:45:c3:06:42:b8:a1:dd:50:f5:
                    fd
    Signature Algorithm: md5WithRSAEncryption
        79:ae:d1:e4:35:20:ba:cf:7d:64:de:ee:7e:22:83:b7:6e:d3:
        20:f6:c1:17:c5:ec:16:8c:29:43:5d:b0:ac:ae:eb:16:33:19:
        48:fd:df:41:9d:a0:41:a0:1c:c2:50:eb:33:68:fe:be:9b:b1:
        3e:87:d9:34:d4:24:2e:23:25:1b:e6:d3:e6:b0:09:52:a0:b1:
        07:45:da:e5:a3:65:ff:2c:98:64:57:ee:b8:aa:94:98:e4:93:
        1f:b3:6e:f4:3f:3a:f1:29:c2:4b:2b:62:a7:6f:7d:88:70:4e:
        6f:e3:5f:85:21:61:e8:17:9c:58:48:de:0d:7f:31:a1:49:95:
        24:cc:ec:50:7d:6d:32:7b:34:c7:c6:cc:d5:cb:e4:4a:0b:86:
        1c:1d:7d:43:06:e7:8e:6f:ef:14:b9:c2:b6:44:1b:8c:db:c4:
        6d:72:cd:89:60:0b:5a:e9:8c:6d:9b:97:79:8f:de:43:cd:20:
        37:c8:8d:5f:20:8c:5a:26:97:b7:78:a4:ee:f9:b4:4a:fc:b4:
        9b:8f:a9:66:3d:53:96:ba:fb:cd:01:62:b4:b9:a7:ac:42:85:
        f8:e4:35:24:c7:24:95:01:27:5e:1c:e7:23:7a:c2:2e:bd:d8:
        5f:a6:af:74:49:e6:be:73:cc:9e:0b:3e:7a:b6:6f:76:5b:77:
        0a:48:c9:dc
-----BEGIN CERTIFICATE-----
MIIFajCCBFKgAwIBAgIBBjANBgkqhkiG9w0BAQQFADB7MQswCQYDVQQGEwJDTjEQ
MA4GA1UECAwHQmVpamluZzEQMA4GA1UEBwwHQmVpamluZzEQMA4GA1UECgwHSGFp
ZGlhbjELMAkGA1UECwwCRloxCzAJBgNVBAMMAkZaMRwwGgYJKoZIhvcNAQkBFg0x
MDAwMDBAZnoub3JnMB4XDTEyMDIwODA5NTIwMFoXDTIyMDIwNTA5NTIwMFowUTEL
MAkGA1UEBhMCQ04xDzANBgNVBAgMBjEwMDAwNjEPMA0GA1UECgwGMTAwMDA2MQ8w
DQYDVQQLDAYxMDAwMDYxDzANBgNVBAMMBjEwMDAwNjCCA0cwggI5BgcqhkjOOAQB
MIICLAKCAQEAuAu4HM1kMzlcoTSS/+ruf/gy9F0jjQBG6qIQPukwyrg/MeHp2eVE
NYClke6k0QL0z1Qo9GSkrBbWS5s9Zl9LIsDZv7e+MCbvKxUJAsbpudaCqB5J+X8z
9+UYMdqqOnjUty4OrKPNv0qmzEO8i0t9qCXWol6UvCrga1iEho64EljEa4jFJtpQ
Qb9DTstpCHyB7cKXASuCK0MwV1oM109Oet4TKT3+hdXOFS9sTCzRWWLmkAwWWxjh
obVFmqsMW4v/9PxG6Wf1pPt1s7Th7zjb7zj5OFlphXY4HPRudwB1foX+0GIz0FeK
fGYEIid4EbRT1ogGkNncQD97SNTysmq8+wIhAMNAfBycILAp7nS8pWJvSeFbiNGH
nZawf4jsZH4Ngd05AoIBAFDUDldLPhmAYYi3lA79atlMixyIDxD6Lu4WM8gwfshW
FNBs9LCmL1zZIz/bS6VJ46Mmh50T8YjWlnWn63I3cTWMymsr64XbKeIqOP9mnvyh
3sCuEL2pYjQrdAYGlK7GmmmLx611UE9j8bGUJWubfEXN7By0iSUAAV1Onwg5adG3
0+0RaNyDajc1BRKDm/fJpEyj0iQSbI+CWN45Ab9S2fNZi+FFEbUT8Xis8PLrOVZj
AxA6xI5YiVow+sX+ye6L4oQDO2E4MriTpo0SQRs6kwhWxYTexAQCYjQOsd6QFCNa
dUZCoGKho48FdvQ80RoGoSCI5gDDKEXDBkK4od1Q9f0DggEGAAKCAQEAo3O4ArPy
7m1DYv+yndcG/qXqkOiis5LMiUuk53O9CpYgKP/CnbIZKDWyFE6JAbVqpzEO2OQj
qYZF6q0Mfq5h3fQ2G93RU5n80cu9qLrF8GSwn3NiuKx4eLHvI9pjSv7i2W+XGOLn
TjMPqCXtTXMMrC4X8GvVB2LO4AU3SH0nH99GOJSFyVjbAWkT3fX2XnarvmNFWD9Z
Blj4Qma+ON0d/rkrRwkFzEbYYaBQGdGk9kWULPfYUkY0wBhL72jbQnxLcUHeLjxn
ig/C3oA9wr6KeSv39Z6bEcGS5Msx8qemfCFoIT2t1zEuIIpXZerUMQLmwJIv9KW3
4hL7Vm68iUz7GzANBgkqhkiG9w0BAQQFAAOCAQEAea7R5DUgus99ZN7ufiKDt27T
IPbBF8XsFowpQ12wrK7rFjMZSP3fQZ2gQaAcwlDrM2j+vpuxPofZNNQkLiMlG+bT
5rAJUqCxB0Xa5aNl/yyYZFfuuKqUmOSTH7Nu9D868SnCSytip299iHBOb+NfhSFh
6BecWEjeDX8xoUmVJMzsUH1tMns0x8bM1cvkSguGHB19Qwbnjm/vFLnCtkQbjNvE
bXLNiWALWumMbZuXeY/eQ80gN8iNXyCMWiaXt3ik7vm0Svy0m4+pZj1Tlrr7zQFi
tLmnrEKF+OQ1JMcklQEnXhznI3rCLr3YX6avdEnmvnPMngs+erZvdlt3CkjJ3A==
-----END CERTIFICATE-----
