Certificate:
    Data:
        Version: 3 (0x2)
        Serial Number: 7 (0x7)
        Signature Algorithm: md5WithRSAEncryption
        Issuer: C=CN, ST=Beijing, L=Beijing, O=Haidian, OU=FZ, CN=FZ/emailAddress=100000@fz.org
        Validity
            Not Before: Feb  8 09:52:24 2012 GMT
            Not After : Feb  5 09:52:24 2022 GMT
        Subject: C=US, ST=110000, O=110000, OU=110000, CN=110000
        Subject Public Key Info:
            Public Key Algorithm: rsaEncryption
                Public-Key: (512 bit)
                Modulus:
                    00:e4:2b:29:b4:75:fc:08:d0:78:09:a3:a1:43:c0:
                    b4:e3:25:c5:10:48:2c:ae:1a:d4:fb:7a:88:15:ef:
                    33:eb:3c:eb:02:c8:92:34:c1:1b:c6:87:ab:aa:40:
                    f9:d0:7f:a4:07:8d:6a:cb:c6:df:ff:9d:7c:b8:2c:
                    e6:3f:53:af:7b
                Exponent: 65537 (0x10001)
    Signature Algorithm: md5WithRSAEncryption
        55:51:78:b5:c8:49:63:6a:fc:1e:ce:99:98:7d:c0:31:c2:10:
        a6:a6:c6:cd:03:52:88:6d:e1:01:b6:cd:bf:04:86:b4:13:7a:
        eb:d0:3a:13:af:9c:e8:1d:96:6b:a6:ae:50:16:71:c4:52:a2:
        c4:b2:d6:38:18:4b:63:d8:5f:41:9c:08:a5:c9:a9:84:25:2a:
        ab:6e:f1:67:6f:43:ba:ff:8d:8a:c2:b5:45:6f:37:6b:f4:36:
        49:37:9a:bb:c3:da:89:98:7c:94:90:38:b0:84:5d:f1:a9:4b:
        c1:50:7b:1d:6c:96:27:5d:c5:80:88:03:ad:a1:8d:be:2c:89:
        56:0a:c7:f7:be:3a:27:34:30:7f:da:cf:9c:74:fd:fa:dd:17:
        9a:88:9c:ff:5b:ff:42:85:76:9c:ec:36:af:37:b1:ed:10:9f:
        f6:08:6a:92:a6:6f:ee:fb:ad:c3:11:8d:fb:40:20:37:78:9e:
        df:45:f8:bf:2f:de:f1:38:5e:91:bf:cf:da:92:e8:c9:c2:a6:
        e7:ec:cd:45:f4:48:63:78:af:cb:27:44:c4:61:01:28:c9:bf:
        9a:10:ae:ea:5a:80:d1:73:03:81:5d:04:a4:6a:4e:9c:f0:67:
        74:20:e9:ec:ff:76:9d:bf:ee:d0:b3:75:fe:5e:b5:f5:08:b9:
        73:4b:67:bf
-----BEGIN CERTIFICATE-----
MIICfTCCAWWgAwIBAgIBBzANBgkqhkiG9w0BAQQFADB7MQswCQYDVQQGEwJDTjEQ
MA4GA1UECAwHQmVpamluZzEQMA4GA1UEBwwHQmVpamluZzEQMA4GA1UECgwHSGFp
ZGlhbjELMAkGA1UECwwCRloxCzAJBgNVBAMMAkZaMRwwGgYJKoZIhvcNAQkBFg0x
MDAwMDBAZnoub3JnMB4XDTEyMDIwODA5NTIyNFoXDTIyMDIwNTA5NTIyNFowUTEL
MAkGA1UEBhMCVVMxDzANBgNVBAgMBjExMDAwMDEPMA0GA1UECgwGMTEwMDAwMQ8w
DQYDVQQLDAYxMTAwMDAxDzANBgNVBAMMBjExMDAwMDBcMA0GCSqGSIb3DQEBAQUA
A0sAMEgCQQDkKym0dfwI0HgJo6FDwLTjJcUQSCyuGtT7eogV7zPrPOsCyJI0wRvG
h6uqQPnQf6QHjWrLxt//nXy4LOY/U697AgMBAAEwDQYJKoZIhvcNAQEEBQADggEB
AFVReLXISWNq/B7OmZh9wDHCEKamxs0DUoht4QG2zb8EhrQTeuvQOhOvnOgdlmum
rlAWccRSosSy1jgYS2PYX0GcCKXJqYQlKqtu8WdvQ7r/jYrCtUVvN2v0Nkk3mrvD
2omYfJSQOLCEXfGpS8FQex1sliddxYCIA62hjb4siVYKx/e+Oic0MH/az5x0/frd
F5qInP9b/0KFdpzsNq83se0Qn/YIapKmb+77rcMRjftAIDd4nt9F+L8v3vE4XpG/
z9qS6MnCpufszUX0SGN4r8snRMRhASjJv5oQrupagNFzA4FdBKRqTpzwZ3Qg6ez/
dp2/7tCzdf5etfUIuXNLZ78=
-----END CERTIFICATE-----
