Certificate:
    Data:
        Version: 3 (0x2)
        Serial Number: 8 (0x8)
        Signature Algorithm: md5WithRSAEncryption
        Issuer: C=US, ST=110000, O=110000, OU=110000, CN=110000
        Validity
            Not Before: Feb  8 09:53:22 2012 GMT
            Not After : Feb  5 09:53:22 2022 GMT
        Subject: C=EN, ST=111000, O=111000, OU=111000, CN=111000
        Subject Public Key Info:
            Public Key Algorithm: rsaEncryption
                Public-Key: (1024 bit)
                Modulus:
                    00:b1:d9:61:cf:1e:6c:57:e1:09:b7:e6:e4:fc:be:
                    a7:c1:88:48:d9:f9:55:44:34:a4:6e:85:15:53:f2:
                    c8:1e:6d:68:09:68:6d:01:84:d4:af:fc:69:26:65:
                    f7:27:4d:87:7e:78:1d:3c:dd:f9:65:36:d2:73:08:
                    49:f4:bd:de:c3:bb:95:13:c2:6a:7d:9b:d9:06:b4:
                    ee:07:33:68:f8:87:db:8a:39:a9:ba:7f:02:ef:0f:
                    35:7f:bf:a4:1e:7b:03:54:9f:0c:10:f6:4e:d4:4a:
                    f5:a9:cc:2a:83:36:02:3d:68:f6:9c:71:b0:a5:ee:
                    31:b9:28:29:91:55:31:f0:dd
                Exponent: 65537 (0x10001)
    Signature Algorithm: md5WithRSAEncryption
        90:e2:2c:b9:59:29:c2:e0:c9:10:2c:26:61:42:6f:1c:c3:46:
        f9:29:5a:0a:5d:fd:2c:a6:6c:3c:0f:45:10:d2:5d:1d:94:46:
        25:35:1a:4b:b6:3e:fd:9c:d0:f0:a3:93:ce:be:16:df:af:cc:
        53:7a:e4:ac:0d:09:db:1d:41:db
-----BEGIN CERTIFICATE-----
MIIB1TCCAX+gAwIBAgIBCDANBgkqhkiG9w0BAQQFADBRMQswCQYDVQQGEwJVUzEP
MA0GA1UECAwGMTEwMDAwMQ8wDQYDVQQKDAYxMTAwMDAxDzANBgNVBAsMBjExMDAw
MDEPMA0GA1UEAwwGMTEwMDAwMB4XDTEyMDIwODA5NTMyMloXDTIyMDIwNTA5NTMy
MlowUTELMAkGA1UEBhMCRU4xDzANBgNVBAgMBjExMTAwMDEPMA0GA1UECgwGMTEx
MDAwMQ8wDQYDVQQLDAYxMTEwMDAxDzANBgNVBAMMBjExMTAwMDCBnzANBgkqhkiG
9w0BAQEFAAOBjQAwgYkCgYEAsdlhzx5sV+EJt+bk/L6nwYhI2flVRDSkboUVU/LI
Hm1oCWhtAYTUr/xpJmX3J02HfngdPN35ZTbScwhJ9L3ew7uVE8JqfZvZBrTuBzNo
+Ifbijmpun8C7w81f7+kHnsDVJ8MEPZO1Er1qcwqgzYCPWj2nHGwpe4xuSgpkVUx
8N0CAwEAATANBgkqhkiG9w0BAQQFAANBAJDiLLlZKcLgyRAsJmFCbxzDRvkpWgpd
/SymbDwPRRDSXR2URiU1Gku2Pv2c0PCjk86+Ft+vzFN65KwNCdsdQds=
-----END CERTIFICATE-----
