Certificate:
    Data:
        Version: 3 (0x2)
        Serial Number: 17 (0x11)
        Signature Algorithm: md5WithRSAEncryption
        Issuer: C=TA, ST=111110, O=111110, OU=111110, CN=111110
        Validity
            Not Before: Feb  8 10:00:06 2012 GMT
            Not After : Feb  5 10:00:06 2022 GMT
        Subject: C=FZ, ST=111111, O=111111, OU=111111, CN=111111
        Subject Public Key Info:
            Public Key Algorithm: rsaEncryption
                Public-Key: (512 bit)
                Modulus:
                    00:da:27:cf:b3:b1:df:11:92:ff:77:95:af:39:bf:
                    41:fd:04:eb:d9:ca:cd:61:00:78:ce:33:2f:66:dc:
                    5a:85:3f:74:f0:ef:fe:ad:2d:42:58:ea:72:b6:86:
                    c0:83:5f:58:03:42:33:e8:45:47:37:fb:2a:8f:a9:
                    07:df:fc:3d:21
                Exponent: 65537 (0x10001)
    Signature Algorithm: md5WithRSAEncryption
        cd:37:f0:cb:7e:07:8b:cd:e4:d2:1a:a2:b9:31:8b:56:15:30:
        de:04:40:e7:24:2c:f7:6a:54:6b:31:d3:23:ac:74:66:29:a2:
        2d:b7:8e:39:c5:7f:4e:82:e8:1b:33:0f:07:55:28:ba:ac:a2:
        49:60:38:24:87:30:ed:22:e5:5c:a2:41:1c:3a:c3:53:b8:50:
        53:81:b0:74:5d:f8:43:5e:84:6c:8d:da:f8:3b:88:d8:1a:f8:
        00:58:31:41:c7:a3:be:c0:c3:80:34:63:d3:8d:7a:b4:48:4d:
        63:d5:8e:6c:8b:50:9c:5f:21:d2:75:04:80:09:4b:a1:88:41:
        ee:bd:73:b1:61:9b:a6:43:55:74:3e:b4:b0:81:7b:db:47:eb:
        d3:ae:bf:14:39:b4:3b:61:aa:3f:be:9f:a1:aa:fc:52:c9:55:
        08:39:2b:48:7d:5d:7a:89:ac:7a:c1:44:5f:6c:49:18:6b:08:
        f5:1e:73:83:8e:aa:f5:ab:85:dc:4f:a6:34:bb:32:9a:3a:b4:
        58:35:55:b9:24:07:98:56:da:98:df:0c:fa:ce:9d:88:fa:40:
        d8:01:99:41:1c:a2:3f:b9:40:18:5f:f8:12:e5:6d:97:75:94:
        93:38:e7:63:19:c5:4e:95:83:5d:ec:d0:6d:eb:ec:92:aa:64:
        22:e3:30:45
-----BEGIN CERTIFICATE-----
MIICUzCCATugAwIBAgIBETANBgkqhkiG9w0BAQQFADBRMQswCQYDVQQGEwJUQTEP
MA0GA1UECAwGMTExMTEwMQ8wDQYDVQQKDAYxMTExMTAxDzANBgNVBAsMBjExMTEx
MDEPMA0GA1UEAwwGMTExMTEwMB4XDTEyMDIwODEwMDAwNloXDTIyMDIwNTEwMDAw
NlowUTELMAkGA1UEBhMCRloxDzANBgNVBAgMBjExMTExMTEPMA0GA1UECgwGMTEx
MTExMQ8wDQYDVQQLDAYxMTExMTExDzANBgNVBAMMBjExMTExMTBcMA0GCSqGSIb3
DQEBAQUAA0sAMEgCQQDaJ8+zsd8Rkv93la85v0H9BOvZys1hAHjOMy9m3FqFP3Tw
7/6tLUJY6nK2hsCDX1gDQjPoRUc3+yqPqQff/D0hAgMBAAEwDQYJKoZIhvcNAQEE
BQADggEBAM038Mt+B4vN5NIaorkxi1YVMN4EQOckLPdqVGsx0yOsdGYpoi23jjnF
f06C6BszDwdVKLqsoklgOCSHMO0i5VyiQRw6w1O4UFOBsHRd+ENehGyN2vg7iNga
+ABYMUHHo77Aw4A0Y9ONerRITWPVjmyLUJxfIdJ1BIAJS6GIQe69c7Fhm6ZDVXQ+
tLCBe9tH69OuvxQ5tDthqj++n6Gq/FLJVQg5K0h9XXqJrHrBRF9sSRhrCPUec4OO
qvWrhdxPpjS7Mpo6tFg1VbkkB5hW2pjfDPrOnYj6QNgBmUEcoj+5QBhf+BLlbZd1
lJM452MZxU6Vg13s0G3r7JKqZCLjMEU=
-----END CERTIFICATE-----
