Certificate:
    Data:
        Version: 3 (0x2)
        Serial Number: 21 (0x15)
        Signature Algorithm: md5WithRSAEncryption
        Issuer: C=TA, ST=111110, O=111110, OU=111110, CN=111110
        Validity
            Not Before: Feb  8 10:00:33 2012 GMT
            Not After : Feb  5 10:00:33 2022 GMT
        Subject: C=II, ST=111115, O=111115, OU=111115, CN=111115
        Subject Public Key Info:
            Public Key Algorithm: rsaEncryption
                Public-Key: (1024 bit)
                Modulus:
                    00:da:17:dc:72:8a:02:73:8d:b0:4d:ef:ca:94:61:
                    a0:3a:54:ba:15:97:6b:6c:c6:92:12:42:2e:e2:2d:
                    cb:35:30:a9:b9:fc:92:b6:73:4f:60:c1:6d:ed:88:
                    a7:e1:04:d0:0a:a7:c6:5d:a4:a3:35:21:31:ee:1f:
                    6d:71:65:27:13:17:fa:b9:89:d6:3d:63:06:80:90:
                    0b:b7:09:d1:30:4f:89:b4:cd:7e:e0:6b:56:92:7d:
                    ca:8e:c9:c1:06:3e:1b:ae:8c:55:f4:01:d7:3b:ec:
                    8c:ae:7c:8e:42:ea:01:c2:ab:3f:9d:44:47:cf:fb:
                    e2:53:7f:2f:db:36:7e:f8:81
                Exponent: 65537 (0x10001)
    Signature Algorithm: md5WithRSAEncryption
        62:f5:91:f0:e0:cd:83:36:4d:63:40:b5:ae:58:2d:5d:62:dc:
        e7:79:76:bd:be:1c:34:35:cc:21:6f:b5:5c:3d:1c:e1:dc:aa:
        b0:86:46:05:58:81:4c:d4:aa:ff:93:06:c4:c3:16:89:cb:1b:
        1b:a8:1d:8a:03:f0:70:1c:35:01:09:46:08:ea:06:c9:67:71:
        56:94:13:1f:b8:27:6b:9c:61:bb:a8:61:d1:70:04:ea:3f:da:
        ea:a8:87:27:6c:bb:b7:69:3e:e0:6e:cc:3a:d6:c3:d2:d7:2a:
        1f:86:df:2f:d1:d7:3c:a7:f6:ab:0a:98:72:c3:0f:c5:da:15:
        06:55:2c:53:8a:a0:db:87:57:5b:87:5b:85:a9:51:8c:a9:0c:
        62:48:aa:2e:a9:c1:7a:78:2c:04:3f:a4:7a:50:fa:36:de:10:
        56:35:78:bf:f3:40:87:03:a6:99:77:cd:8f:89:7b:d0:3b:e7:
        d7:71:1f:7f:fd:f0:6f:25:47:6e:b2:f7:76:83:f7:d8:cc:d2:
        78:83:99:e9:e2:83:5c:b4:4b:89:60:23:05:a5:e0:47:6a:c1:
        37:9d:03:06:f3:35:3d:80:96:d6:f2:c0:69:6c:4c:c7:34:e3:
        47:5a:7b:f6:0f:09:59:48:74:d4:e7:ec:ad:27:79:c2:21:d6:
        55:4f:7d:9e
-----BEGIN CERTIFICATE-----
MIIClzCCAX+gAwIBAgIBFTANBgkqhkiG9w0BAQQFADBRMQswCQYDVQQGEwJUQTEP
MA0GA1UECAwGMTExMTEwMQ8wDQYDVQQKDAYxMTExMTAxDzANBgNVBAsMBjExMTEx
MDEPMA0GA1UEAwwGMTExMTEwMB4XDTEyMDIwODEwMDAzM1oXDTIyMDIwNTEwMDAz
M1owUTELMAkGA1UEBhMCSUkxDzANBgNVBAgMBjExMTExNTEPMA0GA1UECgwGMTEx
MTE1MQ8wDQYDVQQLDAYxMTExMTUxDzANBgNVBAMMBjExMTExNTCBnzANBgkqhkiG
9w0BAQEFAAOBjQAwgYkCgYEA2hfccooCc42wTe/KlGGgOlS6FZdrbMaSEkIu4i3L
NTCpufyStnNPYMFt7Yin4QTQCqfGXaSjNSEx7h9tcWUnExf6uYnWPWMGgJALtwnR
ME+JtM1+4GtWkn3KjsnBBj4broxV9AHXO+yMrnyOQuoBwqs/nURHz/viU38v2zZ+
+IECAwEAATANBgkqhkiG9w0BAQQFAAOCAQEAYvWR8ODNgzZNY0C1rlgtXWLc53l2
vb4cNDXMIW+1XD0c4dyqsIZGBViBTNSq/5MGxMMWicsbG6gdigPwcBw1AQlGCOoG
yWdxVpQTH7gna5xhu6hh0XAE6j/a6qiHJ2y7t2k+4G7MOtbD0tcqH4bfL9HXPKf2
qwqYcsMPxdoVBlUsU4qg24dXW4dbhalRjKkMYkiqLqnBengsBD+kelD6Nt4QVjV4
v/NAhwOmmXfNj4l70Dvn13Eff/3wbyVHbrL3doP32MzSeIOZ6eKDXLRLiWAjBaXg
R2rBN50DBvM1PYCW1vLAaWxMxzTjR1p79g8JWUh01OfsrSd5wiHWVU99ng==
-----END CERTIFICATE-----
