Certificate:
    Data:
        Version: 3 (0x2)
        Serial Number: 16 (0x10)
        Signature Algorithm: md5WithRSAEncryption
        Issuer: C=PT, ST=111100, O=111100, OU=111100, CN=111100
        Validity
            Not Before: Feb  8 09:59:02 2012 GMT
            Not After : Feb  5 09:59:02 2022 GMT
        Subject: C=QQ, ST=111130, O=111130, OU=111130, CN=111130
        Subject Public Key Info:
            Public Key Algorithm: rsaEncryption
                Public-Key: (512 bit)
                Modulus:
                    00:d8:75:71:a3:bd:de:1e:88:8e:5b:c4:c6:f9:a1:
                    1f:6b:8b:b7:a6:77:b9:b1:75:0b:63:19:1b:4f:7f:
                    38:c8:55:fa:f5:65:56:35:f1:09:11:b2:68:52:ed:
                    19:7c:98:7d:29:27:1b:44:3a:d8:47:b0:04:3b:c9:
                    dd:82:ee:14:d1
                Exponent: 65537 (0x10001)
    Signature Algorithm: md5WithRSAEncryption
        47:97:3b:08:b1:3e:b6:fa:e9:e6:57:df:bf:30:9f:e8:e5:02:
        54:b4:79:22:21:d3:11:d6:e6:d4:1a:c5:ec:27:b4:ec:31:f3:
        50:b1:2e:35:78:4b:2f:f2:45:00:5c:aa:8e:b2:b4:b0:b1:b6:
        35:69:c9:d1:ec:a2:ef:87:a5:27:b7:a3:7a:59:74:87:16:ae:
        8c:8c:a1:8e:28:17:71:41:74:11:ed:19:9b:9c:db:c5:a3:a0:
        a1:78:71:88:d3:06:1d:ad:92:c5:aa:2a:a5:4b:8f:f2:d9:f6:
        b5:5c:30:c8:30:b3:94:d7:3f:72:e7:de:5a:45:f7:0b:be:d3:
        5d:ba:4e:85:98:ca:52:f8:d7:b9:5a:50:11:19:30:aa:1c:23:
        16:a9:c6:ba:f3:68:c7:ec:99:54:4d:59:a9:9b:90:25:8c:bd:
        73:09:c8:f1:97:5f:ad:d7:99:17:06:be:8b:fe:56:8d:35:1b:
        24:8a:10:bc:0f:3a:d7:cb:86:8b:cf:7a:8b:61:01:ef:30:70:
        4e:56:99:87:75:15:38:fe:7b:64:e7:6c:4f:29:bd:d4:9c:3e:
        9b:ad:2f:8e:20:aa:c1:74:83:65:5a:04:e4:e3:38:39:e9:3c:
        71:d7:53:3f:6b:2d:48:ba:6d:9f:2c:10:e4:2c:5a:80:ff:81:
        02:a2:c8:55
-----BEGIN CERTIFICATE-----
MIICUzCCATugAwIBAgIBEDANBgkqhkiG9w0BAQQFADBRMQswCQYDVQQGEwJQVDEP
MA0GA1UECAwGMTExMTAwMQ8wDQYDVQQKDAYxMTExMDAxDzANBgNVBAsMBjExMTEw
MDEPMA0GA1UEAwwGMTExMTAwMB4XDTEyMDIwODA5NTkwMloXDTIyMDIwNTA5NTkw
MlowUTELMAkGA1UEBhMCUVExDzANBgNVBAgMBjExMTEzMDEPMA0GA1UECgwGMTEx
MTMwMQ8wDQYDVQQLDAYxMTExMzAxDzANBgNVBAMMBjExMTEzMDBcMA0GCSqGSIb3
DQEBAQUAA0sAMEgCQQDYdXGjvd4eiI5bxMb5oR9ri7emd7mxdQtjGRtPfzjIVfr1
ZVY18QkRsmhS7Rl8mH0pJxtEOthHsAQ7yd2C7hTRAgMBAAEwDQYJKoZIhvcNAQEE
BQADggEBAEeXOwixPrb66eZX378wn+jlAlS0eSIh0xHW5tQaxewntOwx81CxLjV4
Sy/yRQBcqo6ytLCxtjVpydHsou+HpSe3o3pZdIcWroyMoY4oF3FBdBHtGZuc28Wj
oKF4cYjTBh2tksWqKqVLj/LZ9rVcMMgws5TXP3Ln3lpF9wu+0126ToWYylL417la
UBEZMKocIxapxrrzaMfsmVRNWambkCWMvXMJyPGXX63XmRcGvov+Vo01GySKELwP
OtfLhovPeothAe8wcE5WmYd1FTj+e2TnbE8pvdScPputL44gqsF0g2VaBOTjODnp
PHHXUz9rLUi6bZ8sEOQsWoD/gQKiyFU=
-----END CERTIFICATE-----
