Certificate:
    Data:
        Version: 3 (0x2)
        Serial Number: 14 (0xe)
        Signature Algorithm: md5WithRSAEncryption
        Issuer: C=PT, ST=111100, O=111100, OU=111100, CN=111100
        Validity
            Not Before: Feb  8 09:57:55 2012 GMT
            Not After : Feb  5 09:57:55 2022 GMT
        Subject: C=TA, ST=111110, O=111110, OU=111110, CN=111110
        Subject Public Key Info:
            Public Key Algorithm: rsaEncryption
                Public-Key: (2048 bit)
                Modulus:
                    00:d2:1f:9b:4c:4a:25:4b:54:ed:61:31:ab:19:60:
                    cb:78:90:a1:aa:78:7a:e4:99:36:db:74:46:71:02:
                    b8:dd:b5:54:55:c5:9e:86:df:72:57:f2:46:67:c2:
                    5b:f9:13:3c:70:f2:f3:6f:8f:64:06:8e:5d:bf:0e:
                    a4:64:66:0d:da:aa:17:2a:6c:0e:92:17:90:0f:85:
                    7f:b0:5d:9d:58:e9:ad:c6:2a:9a:aa:25:6d:2d:75:
                    e5:23:f9:a6:90:67:11:cd:a5:14:c6:46:15:7d:fa:
                    81:fe:a2:94:16:55:38:99:66:67:e5:d3:ec:4e:8c:
                    12:52:b7:14:a0:a0:ca:a3:14:53:1f:6b:e1:84:aa:
                    94:93:55:21:17:e8:63:02:38:19:6a:d5:73:d9:bd:
                    25:07:7b:78:3b:d2:53:cf:41:3e:ca:39:ea:32:9c:
                    eb:84:c5:c4:b5:37:bc:77:35:51:39:84:83:eb:c2:
                    6d:cd:a1:b0:71:58:4a:10:0a:ea:d7:ae:4a:f2:90:
                    33:12:e3:2b:4e:04:80:9b:af:35:e2:34:f4:6b:bb:
                    83:3e:c0:6e:f9:6a:2c:0e:6c:4b:56:d4:cc:88:33:
                    2c:b4:f1:13:6d:1f:90:c1:f1:c8:70:ac:e6:59:ea:
                    47:c8:3a:a8:be:78:d0:7b:c1:c8:50:55:25:19:5b:
                    af:3f
                Exponent: 65537 (0x10001)
    Signature Algorithm: md5WithRSAEncryption
        41:b3:aa:78:8d:74:6d:75:a1:89:38:04:2e:3b:2a:0b:a8:38:
        ca:af:3d:9b:00:5b:b9:18:11:63:0e:a5:9f:08:b9:d8:19:99:
        76:20:02:1c:20:0c:65:85:b0:f2:8b:23:b5:4d:19:d7:18:97:
        2d:3f:2f:14:42:1e:a0:8d:4f:2d:35:94:1b:22:08:75:df:09:
        45:8d:b0:ff:e7:f9:d5:e3:f0:37:69:76:6a:cf:5d:86:c6:c0:
        f0:e8:08:64:dc:87:68:db:6f:49:93:bf:36:00:06:19:b2:37:
        9a:01:78:9e:35:c3:b8:cd:b3:71:4d:7c:a7:d2:3e:c0:bd:7f:
        83:b0:4b:bc:a3:05:83:6c:fb:6f:12:44:69:3f:02:4a:da:e9:
        0b:3f:54:52:a4:a9:ee:41:cb:a8:2f:d8:0f:d7:b5:1f:2c:2a:
        d3:7c:c2:ac:0f:af:68:73:c1:26:a7:1c:35:30:2e:67:b4:30:
        f6:23:0b:f6:98:b7:48:29:07:22:0f:f0:5b:b9:53:6b:0a:6b:
        4c:cf:15:1c:35:92:44:37:f8:9b:42:f6:c8:aa:8c:d2:e7:37:
        f7:e3:a2:58:63:69:fa:38:af:c7:5f:3f:05:74:99:5e:90:7d:
        5c:52:27:83:56:29:ff:92:2c:21:63:81:2c:58:a1:8a:d8:8f:
        2b:38:ae:d3
-----BEGIN CERTIFICATE-----
MIIDGzCCAgOgAwIBAgIBDjANBgkqhkiG9w0BAQQFADBRMQswCQYDVQQGEwJQVDEP
MA0GA1UECAwGMTExMTAwMQ8wDQYDVQQKDAYxMTExMDAxDzANBgNVBAsMBjExMTEw
MDEPMA0GA1UEAwwGMTExMTAwMB4XDTEyMDIwODA5NTc1NVoXDTIyMDIwNTA5NTc1
NVowUTELMAkGA1UEBhMCVEExDzANBgNVBAgMBjExMTExMDEPMA0GA1UECgwGMTEx
MTEwMQ8wDQYDVQQLDAYxMTExMTAxDzANBgNVBAMMBjExMTExMDCCASIwDQYJKoZI
hvcNAQEBBQADggEPADCCAQoCggEBANIfm0xKJUtU7WExqxlgy3iQoap4euSZNtt0
RnECuN21VFXFnobfclfyRmfCW/kTPHDy82+PZAaOXb8OpGRmDdqqFypsDpIXkA+F
f7BdnVjprcYqmqolbS115SP5ppBnEc2lFMZGFX36gf6ilBZVOJlmZ+XT7E6MElK3
FKCgyqMUUx9r4YSqlJNVIRfoYwI4GWrVc9m9JQd7eDvSU89BPso56jKc64TFxLU3
vHc1UTmEg+vCbc2hsHFYShAK6teuSvKQMxLjK04EgJuvNeI09Gu7gz7AbvlqLA5s
S1bUzIgzLLTxE20fkMHxyHCs5lnqR8g6qL540HvByFBVJRlbrz8CAwEAATANBgkq
hkiG9w0BAQQFAAOCAQEAQbOqeI10bXWhiTgELjsqC6g4yq89mwBbuRgRYw6lnwi5
2BmZdiACHCAMZYWw8osjtU0Z1xiXLT8vFEIeoI1PLTWUGyIIdd8JRY2w/+f51ePw
N2l2as9dhsbA8OgIZNyHaNtvSZO/NgAGGbI3mgF4njXDuM2zcU18p9I+wL1/g7BL
vKMFg2z7bxJEaT8CStrpCz9UUqSp7kHLqC/YD9e1Hywq03zCrA+vaHPBJqccNTAu
Z7Qw9iML9pi3SCkHIg/wW7lTawprTM8VHDWSRDf4m0L2yKqM0uc39+OiWGNp+jiv
x18/BXSZXpB9XFIng1Yp/5IsIWOBLFihitiPKziu0w==
-----END CERTIFICATE-----
