Certificate:
    Data:
        Version: 3 (0x2)
        Serial Number: 13 (0xd)
        Signature Algorithm: md5WithRSAEncryption
        Issuer: C=EN, ST=111000, O=111000, OU=111000, CN=111000
        Validity
            Not Before: Feb  8 09:57:32 2012 GMT
            Not After : Feb  5 09:57:32 2022 GMT
        Subject: C=PT, ST=111100, O=111100, OU=111100, CN=111100
        Subject Public Key Info:
            Public Key Algorithm: rsaEncryption
                Public-Key: (2048 bit)
                Modulus:
                    00:ae:85:74:ab:44:10:81:25:1c:39:28:1d:03:73:
                    d1:80:0f:c2:42:ae:ec:17:2a:8e:20:fc:a7:30:5c:
                    26:52:eb:d0:22:03:b3:2f:2c:3e:ab:c4:71:2f:a6:
                    fa:d1:6b:77:8a:0a:78:35:b6:86:d9:94:7b:14:87:
                    e5:f5:c4:3f:a5:1d:e3:99:24:27:1f:26:bc:b2:0f:
                    5a:4b:e2:ba:61:92:ee:b8:0a:e2:db:c5:a8:1a:47:
                    25:a6:09:5f:c9:d3:c0:d0:f8:69:ba:41:95:76:48:
                    b2:89:62:10:b7:ea:13:38:a5:04:df:ea:7b:27:3a:
                    c5:9a:fe:3a:38:03:9f:50:82:32:7f:2d:b0:f0:48:
                    21:1d:6a:09:6c:0a:f1:52:e6:66:91:20:49:5f:a3:
                    4d:7f:a5:a7:cf:55:f1:44:48:76:b3:1a:4a:9f:ae:
                    1a:2d:a5:01:75:64:a1:76:81:10:90:02:68:7e:89:
                    56:70:a8:fb:6f:bf:d3:87:84:98:20:f4:12:33:83:
                    a7:eb:bd:e8:39:f8:80:74:41:b6:4a:38:e8:16:53:
                    35:cf:41:1f:f1:70:01:1e:d8:f3:da:f2:f8:03:46:
                    e7:32:72:1d:0e:b3:34:b2:33:36:a2:b2:89:1c:d0:
                    ad:6f:7d:ec:fa:b0:14:9d:b8:99:e5:45:45:e1:1d:
                    f9:bb
                Exponent: 65537 (0x10001)
    Signature Algorithm: md5WithRSAEncryption
        59:78:74:76:dd:61:8e:1f:bb:76:61:81:89:f2:cb:18:ff:71:
        be:22:5c:63:5a:4e:12:b7:12:44:93:a5:a4:aa:70:25:b3:a9:
        56:68:7a:b2:d5:fd:79:b4:e3:18:a3:b1:87:37:43:da:d3:a3:
        1d:99:48:38:f6:91:3f:fa:c4:e2:ca:15:84:33:d7:d1:c6:28:
        79:8a:a4:d0:e2:29:e4:0c:3f:14:28:dd:24:0f:4a:8a:f1:20:
        c9:ce:f4:4f:b0:6c:36:ec:91:71:36:12:48:fb:8f:b9:a5:02:
        56:df:6c:3c:c7:6f:d6:8c:8c:42:ce:60:be:e4:03:07:71:8d:
        ab:e2
-----BEGIN CERTIFICATE-----
MIICmjCCAgOgAwIBAgIBDTANBgkqhkiG9w0BAQQFADBRMQswCQYDVQQGEwJFTjEP
MA0GA1UECAwGMTExMDAwMQ8wDQYDVQQKDAYxMTEwMDAxDzANBgNVBAsMBjExMTAw
MDEPMA0GA1UEAwwGMTExMDAwMB4XDTEyMDIwODA5NTczMloXDTIyMDIwNTA5NTcz
MlowUTELMAkGA1UEBhMCUFQxDzANBgNVBAgMBjExMTEwMDEPMA0GA1UECgwGMTEx
MTAwMQ8wDQYDVQQLDAYxMTExMDAxDzANBgNVBAMMBjExMTEwMDCCASIwDQYJKoZI
hvcNAQEBBQADggEPADCCAQoCggEBAK6FdKtEEIElHDkoHQNz0YAPwkKu7BcqjiD8
pzBcJlLr0CIDsy8sPqvEcS+m+tFrd4oKeDW2htmUexSH5fXEP6Ud45kkJx8mvLIP
WkviumGS7rgK4tvFqBpHJaYJX8nTwND4abpBlXZIsoliELfqEzilBN/qeyc6xZr+
OjgDn1CCMn8tsPBIIR1qCWwK8VLmZpEgSV+jTX+lp89V8URIdrMaSp+uGi2lAXVk
oXaBEJACaH6JVnCo+2+/04eEmCD0EjODp+u96Dn4gHRBtko46BZTNc9BH/FwAR7Y
89ry+ANG5zJyHQ6zNLIzNqKyiRzQrW997PqwFJ24meVFReEd+bsCAwEAATANBgkq
hkiG9w0BAQQFAAOBgQBZeHR23WGOH7t2YYGJ8ssY/3G+IlxjWk4StxJEk6WkqnAl
s6lWaHqy1f15tOMYo7GHN0Pa06MdmUg49pE/+sTiyhWEM9fRxih5iqTQ4inkDD8U
KN0kD0qK8SDJzvRPsGw27JFxNhJI+4+5pQJW32w8x2/WjIxCzmC+5AMHcY2r4g==
-----END CERTIFICATE-----
