Certificate:
    Data:
        Version: 3 (0x2)
        Serial Number: 19 (0x13)
        Signature Algorithm: md5WithRSAEncryption
        Issuer: C=TA, ST=111110, O=111110, OU=111110, CN=111110
        Validity
            Not Before: Feb  8 10:00:21 2012 GMT
            Not After : Feb  5 10:00:21 2022 GMT
        Subject: C=YA, ST=111113, O=111113, OU=111113, CN=111113
        Subject Public Key Info:
            Public Key Algorithm: rsaEncryption
                Public-Key: (2048 bit)
                Modulus:
                    00:d2:a8:e7:d0:48:3c:14:09:3c:6a:58:14:e3:49:
                    b1:d6:f3:1b:da:3b:b6:07:e2:bf:65:92:13:67:b2:
                    ab:78:db:d1:40:ba:09:21:ac:81:f2:9b:f6:d1:85:
                    89:cb:b3:92:23:32:44:66:5c:59:9a:e8:21:46:a3:
                    1a:f8:92:ed:48:ff:5a:95:96:9c:03:e4:40:5e:6c:
                    75:0e:0e:08:89:40:c3:f3:b2:bc:82:2d:70:b6:3f:
                    4e:64:de:75:5b:8b:e6:d2:2a:b3:41:71:25:bf:ce:
                    ae:f9:0f:80:b0:2b:cf:89:90:02:b0:85:49:5b:54:
                    28:16:6f:7a:9d:aa:1f:e8:b8:fa:2c:5d:8c:cf:93:
                    cb:be:26:42:a1:31:a6:63:55:e1:cd:18:c4:79:92:
                    c7:36:a4:ae:e8:57:2d:a1:18:83:4c:db:e8:26:5b:
                    8e:9c:9d:af:38:c1:7d:68:de:82:11:da:9e:83:c3:
                    ab:e0:7a:01:90:cc:fa:52:60:a2:8d:f3:e4:66:6b:
                    82:9c:af:ad:5d:02:5a:59:dd:36:75:e6:94:24:a9:
                    f6:05:37:7f:61:23:af:af:ae:f7:47:f5:d2:56:cb:
                    c3:60:56:d4:33:55:8c:eb:c6:23:70:01:9f:b8:68:
                    3c:a2:61:59:97:f3:ad:02:85:08:3a:36:7c:96:01:
                    2f:f5
                Exponent: 65537 (0x10001)
    Signature Algorithm: md5WithRSAEncryption
        ce:f5:fb:ec:cb:0e:c7:db:85:f0:a2:b6:81:d8:d4:a0:7d:95:
        5b:7f:5c:ba:5c:9b:c4:33:39:9b:74:d4:76:01:15:36:98:b6:
        8f:10:75:0a:3a:f8:f9:74:31:85:2d:11:9e:d3:70:71:20:f5:
        15:ec:a6:a0:d4:9c:4d:77:a9:ce:3a:33:37:48:e2:c1:92:a1:
        b4:6d:3f:31:7a:96:28:14:2e:f8:cd:07:f4:74:e6:8a:59:3f:
        d4:8e:73:b0:b7:a2:94:cd:b1:c7:1f:cb:a7:fc:e8:35:92:95:
        e9:b0:8e:15:1e:c3:a4:7f:51:98:de:17:bd:7c:65:cd:71:9d:
        4a:a8:98:8c:8d:59:45:80:f3:09:7f:1f:85:f7:10:39:a4:eb:
        b6:93:56:91:5c:c7:79:25:eb:3d:df:a9:1d:b2:26:f4:65:1d:
        49:df:37:af:50:b0:c8:ed:64:bc:c8:ea:bb:22:1d:0a:ec:52:
        f0:a0:a3:13:62:64:9c:d7:e7:93:bd:f0:e8:6c:34:0d:d9:db:
        2f:21:ce:5a:9e:ac:6b:4a:7f:1d:be:19:0c:28:3e:8d:06:82:
        5c:88:4e:12:28:06:a9:b8:12:d9:56:fd:0a:20:1d:2a:3f:ef:
        3a:f1:8d:8b:3a:fa:02:ef:b4:23:59:6d:94:0b:f0:61:ce:fa:
        8b:53:00:4e
-----BEGIN CERTIFICATE-----
MIIDGzCCAgOgAwIBAgIBEzANBgkqhkiG9w0BAQQFADBRMQswCQYDVQQGEwJUQTEP
MA0GA1UECAwGMTExMTEwMQ8wDQYDVQQKDAYxMTExMTAxDzANBgNVBAsMBjExMTEx
MDEPMA0GA1UEAwwGMTExMTEwMB4XDTEyMDIwODEwMDAyMVoXDTIyMDIwNTEwMDAy
MVowUTELMAkGA1UEBhMCWUExDzANBgNVBAgMBjExMTExMzEPMA0GA1UECgwGMTEx
MTEzMQ8wDQYDVQQLDAYxMTExMTMxDzANBgNVBAMMBjExMTExMzCCASIwDQYJKoZI
hvcNAQEBBQADggEPADCCAQoCggEBANKo59BIPBQJPGpYFONJsdbzG9o7tgfiv2WS
E2eyq3jb0UC6CSGsgfKb9tGFicuzkiMyRGZcWZroIUajGviS7Uj/WpWWnAPkQF5s
dQ4OCIlAw/OyvIItcLY/TmTedVuL5tIqs0FxJb/OrvkPgLArz4mQArCFSVtUKBZv
ep2qH+i4+ixdjM+Ty74mQqExpmNV4c0YxHmSxzakruhXLaEYg0zb6CZbjpydrzjB
fWjeghHanoPDq+B6AZDM+lJgoo3z5GZrgpyvrV0CWlndNnXmlCSp9gU3f2Ejr6+u
90f10lbLw2BW1DNVjOvGI3ABn7hoPKJhWZfzrQKFCDo2fJYBL/UCAwEAATANBgkq
hkiG9w0BAQQFAAOCAQEAzvX77MsOx9uF8KK2gdjUoH2VW39culybxDM5m3TUdgEV
Npi2jxB1Cjr4+XQxhS0RntNwcSD1FeymoNScTXepzjozN0jiwZKhtG0/MXqWKBQu
+M0H9HTmilk/1I5zsLeilM2xxx/Lp/zoNZKV6bCOFR7DpH9RmN4XvXxlzXGdSqiY
jI1ZRYDzCX8fhfcQOaTrtpNWkVzHeSXrPd+pHbIm9GUdSd83r1CwyO1kvMjquyId
CuxS8KCjE2JknNfnk73w6Gw0DdnbLyHOWp6sa0p/Hb4ZDCg+jQaCXIhOEigGqbgS
2Vb9CiAdKj/vOvGNizr6Au+0I1ltlAvwYc76i1MATg==
-----END CERTIFICATE-----
