Certificate:
    Data:
        Version: 3 (0x2)
        Serial Number: 12 (0xc)
        Signature Algorithm: md5WithRSAEncryption
        Issuer: C=CN, ST=Beijing, L=Beijing, O=Haidian, OU=FZ, CN=FZ/emailAddress=100000@fz.org
        Validity
            Not Before: Feb  8 09:55:18 2012 GMT
            Not After : Feb  5 09:55:18 2022 GMT
        Subject: C=CC, ST=120000, O=120000, OU=120000, CN=120000
        Subject Public Key Info:
            Public Key Algorithm: rsaEncryption
                Public-Key: (1024 bit)
                Modulus:
                    00:a9:f7:a1:0c:96:ea:3e:95:0d:86:4c:9a:5e:d4:
                    ff:58:4f:56:70:17:d9:43:89:58:b5:e2:f3:12:d6:
                    bb:13:a6:5a:af:bb:b3:69:29:1f:53:d0:d6:8f:86:
                    65:c5:2d:d0:f0:5d:3c:dc:78:b5:57:f8:21:94:81:
                    f4:22:db:a2:8a:cb:e5:d2:f4:c7:56:d2:d3:63:54:
                    6a:23:34:7a:db:42:d9:29:bf:2e:03:cc:ea:49:67:
                    69:dd:fa:ec:9a:39:92:4d:25:ae:7e:86:16:a7:df:
                    99:93:ff:e2:5b:97:44:bc:4c:9a:4e:4a:c2:44:8e:
                    11:e1:54:93:0e:0a:a5:69:51
                Exponent: 65537 (0x10001)
    Signature Algorithm: md5WithRSAEncryption
        75:99:6e:f6:89:e3:86:76:d3:9b:b1:e0:a6:2d:91:4c:7e:20:
        d1:7a:f8:98:a1:76:f6:a9:d7:a1:ed:d7:76:35:b1:c5:41:73:
        a2:63:a9:51:ef:15:9e:46:75:74:17:d6:19:d8:65:3d:91:a8:
        1f:53:84:8a:84:93:22:36:8e:0e:1b:97:21:75:e7:54:bd:14:
        1c:ba:d1:f5:b0:e0:c1:07:57:1a:0a:92:b2:88:42:a1:81:b6:
        7a:ca:ce:f1:ad:59:44:72:62:5a:39:4f:5e:59:6a:30:fc:f0:
        dc:31:e7:d6:3c:56:f6:fd:0f:7a:13:41:24:4f:50:88:59:bd:
        47:79:c6:cf:19:14:75:6e:49:67:fc:39:0d:5c:30:05:54:b4:
        7c:0f:17:7d:41:28:a1:05:bb:d5:07:9b:e8:84:58:c3:c9:4e:
        d2:e0:89:92:6e:fc:81:8e:31:45:0f:02:95:f3:46:74:d9:94:
        6e:a1:fa:fa:13:e2:e1:63:c0:0c:d4:4e:11:6c:c6:86:05:d7:
        16:48:39:10:67:ed:c9:96:9e:9d:4e:78:55:df:0e:18:11:28:
        d2:32:25:dc:72:a6:0f:0e:5a:4a:64:fc:ae:62:11:f8:d9:84:
        c2:ff:40:ca:c2:26:ab:08:13:00:7c:d3:c7:8f:61:ab:36:1c:
        06:6c:fa:7e
-----BEGIN CERTIFICATE-----
MIICwTCCAamgAwIBAgIBDDANBgkqhkiG9w0BAQQFADB7MQswCQYDVQQGEwJDTjEQ
MA4GA1UECAwHQmVpamluZzEQMA4GA1UEBwwHQmVpamluZzEQMA4GA1UECgwHSGFp
ZGlhbjELMAkGA1UECwwCRloxCzAJBgNVBAMMAkZaMRwwGgYJKoZIhvcNAQkBFg0x
MDAwMDBAZnoub3JnMB4XDTEyMDIwODA5NTUxOFoXDTIyMDIwNTA5NTUxOFowUTEL
MAkGA1UEBhMCQ0MxDzANBgNVBAgMBjEyMDAwMDEPMA0GA1UECgwGMTIwMDAwMQ8w
DQYDVQQLDAYxMjAwMDAxDzANBgNVBAMMBjEyMDAwMDCBnzANBgkqhkiG9w0BAQEF
AAOBjQAwgYkCgYEAqfehDJbqPpUNhkyaXtT/WE9WcBfZQ4lYteLzEta7E6Zar7uz
aSkfU9DWj4ZlxS3Q8F083Hi1V/ghlIH0Ituiisvl0vTHVtLTY1RqIzR620LZKb8u
A8zqSWdp3frsmjmSTSWufoYWp9+Zk//iW5dEvEyaTkrCRI4R4VSTDgqlaVECAwEA
ATANBgkqhkiG9w0BAQQFAAOCAQEAdZlu9onjhnbTm7Hgpi2RTH4g0Xr4mKF29qnX
oe3XdjWxxUFzomOpUe8VnkZ1dBfWGdhlPZGoH1OEioSTIjaODhuXIXXnVL0UHLrR
9bDgwQdXGgqSsohCoYG2esrO8a1ZRHJiWjlPXllqMPzw3DHn1jxW9v0PehNBJE9Q
iFm9R3nGzxkUdW5JZ/w5DVwwBVS0fA8XfUEooQW71Qeb6IRYw8lO0uCJkm78gY4x
RQ8ClfNGdNmUbqH6+hPi4WPADNROEWzGhgXXFkg5EGftyZaenU54Vd8OGBEo0jIl
3HKmDw5aSmT8rmIR+NmEwv9AysImqwgTAHzTx49hqzYcBmz6fg==
-----END CERTIFICATE-----
