Certificate:
    Data:
        Version: 3 (0x2)
        Serial Number: 11 (0xb)
        Signature Algorithm: md5WithRSAEncryption
        Issuer: C=CN, ST=Beijing, L=Beijing, O=Haidian, OU=FZ, CN=FZ/emailAddress=100000@fz.org
        Validity
            Not Before: Feb  8 09:54:57 2012 GMT
            Not After : Feb  5 09:54:57 2022 GMT
        Subject: C=HH, ST=130000, O=130000, OU=130000, CN=130000
        Subject Public Key Info:
            Public Key Algorithm: dsaEncryption
                pub: 
                    00:8e:a8:83:16:ec:80:ca:dc:da:b0:13:98:49:44:
                    a8:a2:6c:dc:c6:09:00:4c:06:ca:5a:94:0f:87:e4:
                    fb:7e:84:9c:bd:76:18:7e:ec:52:12:c3:44:72:1a:
                    48:fe:78:c0:50:d8:1e:cf:1b:1e:92:c5:62:46:4a:
                    c5:1a:f2:01:7c:31:2c:6c:4a:40:1e:04:e3:63:47:
                    79:34:81:9e:2f:11:84:d1:99:d1:35:6b:4f:78:ef:
                    3b:62:22:9f:93:e8:eb:75:ce:80:1b:0c:0f:e7:a6:
                    28:6e:2e:6f:35:b0:e4:e4:e7:26:5d:38:34:a2:da:
                    24:1e:7a:ab:e8:b9:b5:c8:96
                P:   
                    00:d6:7d:5b:1e:b1:d4:4c:28:3c:54:87:f3:4d:8f:
                    41:3c:70:a6:be:55:19:98:7f:2b:e0:b6:bb:af:06:
                    6b:34:2d:56:88:48:e0:f0:1d:24:ca:56:1d:17:5b:
                    e8:a6:8f:3b:a5:bc:d1:e6:a4:c4:e0:71:a0:4f:7a:
                    7e:d1:b9:87:4f:51:a5:d6:f8:4b:2f:12:91:3d:0d:
                    4e:02:1f:a2:8c:f5:af:52:f5:3a:c7:eb:48:07:55:
                    fd:d8:55:9c:a1:18:d8:01:db:76:19:7b:8e:c5:61:
                    cd:44:89:c7:0b:f9:bf:d1:54:af:34:77:4b:35:ba:
                    03:4d:17:06:90:3d:cf:58:5d
                Q:   
                    00:aa:ef:1a:72:a3:e2:6c:71:c8:ab:9e:9a:7f:33:
                    f7:18:21:50:a9:b7
                G:   
                    53:4d:02:c8:3d:2f:7a:7e:ab:d3:a8:83:93:ae:d9:
                    c5:c1:c1:a2:2e:0d:67:16:cc:1f:91:b3:19:ae:7f:
                    59:47:e4:af:07:38:66:20:86:ef:a0:0e:05:93:3d:
                    b3:20:07:91:79:b9:e9:e7:7a:8a:6e:de:2e:c5:dd:
                    be:9b:7a:1d:6c:42:25:55:8f:ae:36:23:91:bd:65:
                    4b:0e:2d:c8:47:dd:d0:7c:72:85:2c:8f:6f:89:6c:
                    59:2e:26:6a:67:cd:22:9d:9f:ce:7e:22:52:78:c0:
                    c5:28:8c:f6:7a:cd:9d:7c:c2:30:53:53:a1:18:37:
                    ea:87:65:b0:62:29:f7:f2
    Signature Algorithm: md5WithRSAEncryption
        2b:f0:27:d0:06:b5:28:f8:37:21:15:fa:40:fa:1e:70:e0:84:
        14:79:b7:07:6f:84:c9:d5:f9:7c:77:62:69:b8:84:f1:03:16:
        04:e7:ab:fc:ff:4c:0f:fa:2d:23:67:01:5e:99:60:13:36:97:
        0b:51:98:e6:1b:98:c6:f1:1c:a4:17:9c:05:7a:aa:da:d1:7a:
        db:16:a9:19:bf:3e:82:2e:fc:0a:4a:0b:af:8b:f2:cf:d8:72:
        a6:d0:fd:83:2e:93:f8:91:8d:58:9d:ce:d8:e0:4e:bf:c5:5d:
        3e:66:36:94:2b:7d:d0:6f:15:27:15:a3:2a:05:a7:64:88:40:
        59:70:f9:e2:0c:2f:44:fd:9e:f5:99:a4:41:cb:3c:4a:b8:d1:
        2f:ad:7a:8e:1f:21:6e:76:a3:53:e6:cc:58:36:4e:bd:f8:b4:
        6b:54:97:77:d1:af:60:fa:74:b5:5c:29:bd:a5:08:69:7d:c4:
        91:60:82:78:7f:43:9c:e5:ad:a3:a1:bc:f7:be:c4:eb:37:2a:
        f4:e9:f4:45:87:b4:67:f4:d4:21:76:50:49:ad:1e:a5:eb:93:
        09:37:df:76:87:b5:59:c1:99:be:7f:50:2f:61:ca:03:9a:ec:
        c6:2a:44:7e:6b:50:a4:91:4c:20:a7:40:78:8d:55:46:f5:6f:
        4f:89:f1:a6
-----BEGIN CERTIFICATE-----
MIID2jCCAsKgAwIBAgIBCzANBgkqhkiG9w0BAQQFADB7MQswCQYDVQQGEwJDTjEQ
MA4GA1UECAwHQmVpamluZzEQMA4GA1UEBwwHQmVpamluZzEQMA4GA1UECgwHSGFp
ZGlhbjELMAkGA1UECwwCRloxCzAJBgNVBAMMAkZaMRwwGgYJKoZIhvcNAQkBFg0x
MDAwMDBAZnoub3JnMB4XDTEyMDIwODA5NTQ1N1oXDTIyMDIwNTA5NTQ1N1owUTEL
MAkGA1UEBhMCSEgxDzANBgNVBAgMBjEzMDAwMDEPMA0GA1UECgwGMTMwMDAwMQ8w
DQYDVQQLDAYxMzAwMDAxDzANBgNVBAMMBjEzMDAwMDCCAbcwggErBgcqhkjOOAQB
MIIBHgKBgQDWfVsesdRMKDxUh/NNj0E8cKa+VRmYfyvgtruvBms0LVaISODwHSTK
Vh0XW+imjzulvNHmpMTgcaBPen7RuYdPUaXW+EsvEpE9DU4CH6KM9a9S9TrH60gH
Vf3YVZyhGNgB23YZe47FYc1EiccL+b/RVK80d0s1ugNNFwaQPc9YXQIVAKrvGnKj
4mxxyKuemn8z9xghUKm3AoGAU00CyD0ven6r06iDk67ZxcHBoi4NZxbMH5GzGa5/
WUfkrwc4ZiCG76AOBZM9syAHkXm56ed6im7eLsXdvpt6HWxCJVWPrjYjkb1lSw4t
yEfd0HxyhSyPb4lsWS4mamfNIp2fzn4iUnjAxSiM9nrNnXzCMFNToRg36odlsGIp
9/IDgYUAAoGBAI6ogxbsgMrc2rATmElEqKJs3MYJAEwGylqUD4fk+36EnL12GH7s
UhLDRHIaSP54wFDYHs8bHpLFYkZKxRryAXwxLGxKQB4E42NHeTSBni8RhNGZ0TVr
T3jvO2Iin5Po63XOgBsMD+emKG4ubzWw5OTnJl04NKLaJB56q+i5tciWMA0GCSqG
SIb3DQEBBAUAA4IBAQAr8CfQBrUo+DchFfpA+h5w4IQUebcHb4TJ1fl8d2JpuITx
AxYE56v8/0wP+i0jZwFemWATNpcLUZjmG5jG8RykF5wFeqra0XrbFqkZvz6CLvwK
Sguvi/LP2HKm0P2DLpP4kY1Ync7Y4E6/xV0+ZjaUK33QbxUnFaMqBadkiEBZcPni
DC9E/Z71maRByzxKuNEvrXqOHyFudqNT5sxYNk69+LRrVJd30a9g+nS1XCm9pQhp
fcSRYIJ4f0Oc5a2jobz3vsTrNyr06fRFh7Rn9NQhdlBJrR6l65MJN992h7VZwZm+
f1AvYcoDmuzGKkR+a1CkkUwgp0B4jVVG9W9PifGm
-----END CERTIFICATE-----
